MODULE Linux x86_64 EFF1508F470465E1E83D6B7F7F3271830 cppcrash
INFO CODE_ID 8F50F1EF0447E165E83D6B7F7F327183E3BC6B6A
FUNC 19f0 4a 0 google_breakpad::PageAllocator::FreeAll
FUNC 1a3a 20 0 google_breakpad::ProcCpuInfoReader::GetValueAndLen
FUNC 1a5a 20 0 google_breakpad::TypedMDRVA<MDRawDirectory>::CopyIndex
FUNC 1a7a 1d 0 google_breakpad::TypedMDRVA<MDRawDirectory>::CopyIndex
FUNC 1a98 20 0 google_breakpad::TypedMDRVA<unsigned int>::CopyIndexAfterObject
FUNC 1ab8 20 0 MinidumpWriter::MinidumpWriter
FUNC 1ad8 2c 0 MinidumpWriter::~MinidumpWriter
FUNC 1b04 1c9 0 MinidumpWriter::WriteFile
FUNC 1cce 3c 0 MinidumpWriter::WriteProcFile
FUNC 1e06 39 0 dumpCallback
FUNC 1e3f 6c 0 main
FUNC 1eac 12 0 google_breakpad::MinidumpDescriptor::path
FUNC 1ebe 2f 0 google_breakpad::MinidumpDescriptor::~MinidumpDescriptor
FUNC 1eee 2b 0 Breakpad::~Breakpad
FUNC 1f1a 39 0 Breakpad::dumpCallback
FUNC 1f54 f9 0 Breakpad::Breakpad
FUNC 204e 2e 0 google_breakpad::MicrodumpExtraInfo::MicrodumpExtraInfo
FUNC 207c c4 0 google_breakpad::MinidumpDescriptor::MinidumpDescriptor
FUNC 2140 12b 0 google_breakpad::ExceptionHandler::InstallHandlersLocked
FUNC 2270 7c 0 google_breakpad::ExceptionHandler::RestoreHandlersLocked
FUNC 22f0 393 0 google_breakpad::ExceptionHandler::~ExceptionHandler
FUNC 2690 d1 0 google_breakpad::ExceptionHandler::SendContinueSignalToChild
FUNC 2770 487 0 google_breakpad::ExceptionHandler::GenerateDump
FUNC 2c00 1d2 0 google_breakpad::ExceptionHandler::HandleSignal
FUNC 2de0 19f 0 google_breakpad::ExceptionHandler::SignalHandler
FUNC 2f80 56 0 google_breakpad::ExceptionHandler::SimulateSignalDelivery
FUNC 2fe0 c2 0 google_breakpad::ExceptionHandler::WaitForContinueSignal
FUNC 30b0 80 0 google_breakpad::ExceptionHandler::DoDump
FUNC 3130 28 0 google_breakpad::ExceptionHandler::ThreadEntry
FUNC 3160 178 0 google_breakpad::ExceptionHandler::WriteMinidump
FUNC 32e0 ac 0 google_breakpad::ExceptionHandler::AddMappingInfo
FUNC 3390 6e 0 google_breakpad::ExceptionHandler::RegisterAppMemory
FUNC 3400 42 0 google_breakpad::ExceptionHandler::UnregisterAppMemory
FUNC 3450 19f 0 google_breakpad::ExceptionHandler::WriteMinidumpForChild
FUNC 35f0 35e 0 google_breakpad::ExceptionHandler::ExceptionHandler
FUNC 3950 1ca 0 google_breakpad::ExceptionHandler::WriteMinidump
FUNC 3b20 ea 0 std::vector<google_breakpad::ExceptionHandler*, std::allocator<google_breakpad::ExceptionHandler*> >::_M_emplace_back_aux<google_breakpad::ExceptionHandler*>
FUNC 3c10 32 0 std::basic_string<char, std::char_traits<char>, std::allocator<char> >::_Rep::_M_dispose
FUNC 3c50 8d 0 google_breakpad::MinidumpDescriptor::MinidumpDescriptor
FUNC 3ce0 2e2 0 google_breakpad::MinidumpDescriptor::UpdatePath
FUNC 3fd0 a4 0 google_breakpad::MinidumpDescriptor::operator=
FUNC 4080 33 0 logger::write
FUNC 40c0 1aeb 0 google_breakpad::WriteMicrodump
FUNC 5bb0 3f7 0 std::vector<unsigned char, google_breakpad::PageStdAllocator<unsigned char> >::_M_range_insert<unsigned char const*>
FUNC 5fb0 6 0 google_breakpad::LinuxDumper::LateInit
FUNC 5fc0 846 0 google_breakpad::LinuxDumper::LinuxDumper
FUNC 6810 67 0 google_breakpad::LinuxDumper::~LinuxDumper
FUNC 6880 12 0 google_breakpad::LinuxDumper::~LinuxDumper
FUNC 68a0 4a 0 google_breakpad::LinuxDumper::GetMappingAbsolutePath
FUNC 68f0 172 0 ElfFileSoName
FUNC 6a70 17a 0 google_breakpad::LinuxDumper::HandleDeletedFileInMapping
FUNC 6bf0 e6 0 google_breakpad::LinuxDumper::GetMappingEffectiveNameAndPath
FUNC 6ce0 f0 0 google_breakpad::LinuxDumper::ReadAuxv
FUNC 6dd0 32 0 google_breakpad::LinuxDumper::Init
FUNC 6e10 4b 0 google_breakpad::LinuxDumper::FindMapping
FUNC 6e60 7d 0 google_breakpad::LinuxDumper::GetStackInfo
FUNC 6ee0 53 0 google_breakpad::LinuxDumper::HandleDeletedFileInMapping
FUNC 6f40 316 0 google_breakpad::LinuxDumper::ElfFileIdentifierForMapping
FUNC 7260 918 0 google_breakpad::LinuxDumper::EnumerateMappings
FUNC 7b80 150 0 google_breakpad::PageAllocator::Alloc
FUNC 7cd0 299 0 std::vector<google_breakpad::MappingInfo*, google_breakpad::PageStdAllocator<google_breakpad::MappingInfo*> >::_M_default_append
FUNC 7f70 3 0 google_breakpad::LinuxPtraceDumper::IsPostMortem
FUNC 7f80 14a 0 google_breakpad::LinuxPtraceDumper::CopyFromProcess
FUNC 80d0 bb 0 google_breakpad::LinuxPtraceDumper::BuildProcPath
FUNC 8190 bc 0 google_breakpad::LinuxPtraceDumper::ThreadsResume
FUNC 8250 5dc 0 google_breakpad::LinuxPtraceDumper::EnumerateThreads
FUNC 8830 4f9 0 google_breakpad::LinuxPtraceDumper::GetThreadInfoByIndex
FUNC 8d30 27 0 google_breakpad::LinuxPtraceDumper::LinuxPtraceDumper
FUNC 8d60 233 0 google_breakpad::LinuxPtraceDumper::ThreadsSuspend
FUNC 8fa0 13 0 google_breakpad::LinuxPtraceDumper::~LinuxPtraceDumper
FUNC 8fc0 20 0 google_breakpad::LinuxPtraceDumper::~LinuxPtraceDumper
FUNC 8fe0 299 0 std::vector<int, google_breakpad::PageStdAllocator<int> >::_M_default_append
FUNC 9280 dac 0 MinidumpWriter::WriteThreadListStream
FUNC a030 21da 0 MinidumpWriter::Dump
FUNC c210 31e 0 google_breakpad::WriteMinidump
FUNC c530 449 0 google_breakpad::WriteMinidump
FUNC c980 3dd 0 WriteMinidumpImpl
FUNC cd60 d5 0 google_breakpad::WriteMinidump
FUNC ce40 d5 0 google_breakpad::WriteMinidump
FUNC cf20 26 0 google_breakpad::WriteMinidump
FUNC cf50 25 0 google_breakpad::WriteMinidump
FUNC cf80 24 0 google_breakpad::WriteMinidump
FUNC cfb0 23 0 google_breakpad::WriteMinidump
FUNC cfe0 259 0 google_breakpad::ProcCpuInfoReader::GetNextField
FUNC d240 27b 0 std::vector<char, google_breakpad::PageStdAllocator<char> >::resize
FUNC d4c0 261 0 std::vector<MDMemoryDescriptor, google_breakpad::PageStdAllocator<MDMemoryDescriptor> >::_M_emplace_back_aux<const MDMemoryDescriptor&>
FUNC d730 23 0 google_breakpad::TypedMDRVA<MDString>::CopyIndexAfterObject
FUNC d760 1a 0 google_breakpad::MinidumpFileWriter::MinidumpFileWriter
FUNC d780 78 0 google_breakpad::MinidumpFileWriter::Open
FUNC d800 2c 0 google_breakpad::MinidumpFileWriter::SetFile
FUNC d830 5d 0 google_breakpad::MinidumpFileWriter::Close
FUNC d890 15 0 google_breakpad::MinidumpFileWriter::~MinidumpFileWriter
FUNC d8b0 b6 0 google_breakpad::MinidumpFileWriter::Allocate
FUNC d970 ff 0 google_breakpad::MinidumpFileWriter::Copy
FUNC da70 ca 0 google_breakpad::MinidumpFileWriter::CopyStringToMDString
FUNC db40 c9 0 google_breakpad::MinidumpFileWriter::CopyStringToMDString
FUNC dc10 41 0 google_breakpad::UntypedMDRVA::Allocate
FUNC dc60 89 0 google_breakpad::UntypedMDRVA::Copy
FUNC dcf0 c1 0 google_breakpad::MinidumpFileWriter::WriteMemory
FUNC ddc0 5 0 google_breakpad::MinidumpFileWriter::WriteString
FUNC ddd0 5 0 google_breakpad::MinidumpFileWriter::WriteString
FUNC dde0 215 0 google_breakpad::MinidumpFileWriter::WriteStringCore<wchar_t>
FUNC e000 20d 0 google_breakpad::MinidumpFileWriter::WriteStringCore<char>
FUNC e210 91 0 google_breakpad::UTF8ToUTF16Char
FUNC e2b0 56 0 google_breakpad::UTF32ToUTF16Char
FUNC e310 13b 0 google_breakpad::UTF16ToUTF8
FUNC e450 cb 0 google_breakpad::UTF32ToUTF16
FUNC e520 cb 0 google_breakpad::UTF8ToUTF16
FUNC e5f0 2bd 0 std::vector<short unsigned int, std::allocator<short unsigned int> >::_M_fill_insert
FUNC e8b0 14d 0 std::vector<short unsigned int, std::allocator<short unsigned int> >::_M_default_append
FUNC ea00 1f 0 google_breakpad::IsValidElf
FUNC ea20 5 0 google_breakpad::ElfClass
FUNC ea30 452 0 google_breakpad::FindElfSection
FUNC ee90 287 0 google_breakpad::FindElfSegment
FUNC f120 fe 0 google_breakpad::bytes_to_hex_string
FUNC f220 13 0 google_breakpad::FileID::FileID
FUNC f240 9d 0 google_breakpad::FileID::ConvertIdentifierToUUIDString
FUNC f2e0 1c 0 google_breakpad::FileID::ConvertIdentifierToString
FUNC f300 43d 0 google_breakpad::FileID::ElfFileIdentifierFromMappedFile
FUNC f740 57 0 google_breakpad::FileID::ElfFileIdentifier
FUNC f7a0 73 0 CreateGUID
FUNC f820 66 0 GUIDToString
FUNC f890 16 0 GUIDGenerator::InitOnceImpl
FUNC f8b0 1e 0 my_strlen
FUNC f8d0 46 0 my_strcmp
FUNC f920 56 0 my_strncmp
FUNC f980 4c 0 my_strtoui
FUNC f9d0 39 0 my_uint_len
FUNC fa10 3c 0 my_uitos
FUNC fa50 34 0 my_strchr
FUNC fa90 26 0 my_strrchr
FUNC fac0 34 0 my_memchr
FUNC fb00 7c 0 my_read_hex_ptr
FUNC fb80 3a 0 my_read_decimal_ptr
FUNC fbc0 1f 0 my_memset
FUNC fbe0 38 0 my_strlcpy
FUNC fc20 3b 0 my_strlcat
FUNC fc60 3e 0 my_isspace
FUNC fca0 10 0 google_breakpad::MemoryMappedFile::MemoryMappedFile
FUNC fcb0 4b 0 google_breakpad::MemoryMappedFile::Unmap
FUNC fd00 5 0 google_breakpad::MemoryMappedFile::~MemoryMappedFile
FUNC fd10 17a 0 google_breakpad::MemoryMappedFile::Map
FUNC fe90 14 0 google_breakpad::MemoryMappedFile::MemoryMappedFile
FUNC feb0 40 0 google_breakpad::SafeReadLink
FUNC fef0 2 0 CrashGenerationClientImpl::~CrashGenerationClientImpl
FUNC ff00 1de 0 CrashGenerationClientImpl::RequestDump
FUNC 100e0 5 0 CrashGenerationClientImpl::~CrashGenerationClientImpl
FUNC 100f0 23 0 google_breakpad::CrashGenerationClient::TryCreate
FUNC 10120 8 0 google_breakpad::ThreadInfo::GetInstructionPointer
FUNC 10130 2fc 0 google_breakpad::ThreadInfo::FillCPUContext
FUNC 10430 44 0 google_breakpad::ThreadInfo::GetGeneralPurposeRegisters
FUNC 10480 47 0 google_breakpad::ThreadInfo::GetFloatingPointRegisters
FUNC 104d0 8 0 google_breakpad::UContextReader::GetStackPointer
FUNC 104e0 8 0 google_breakpad::UContextReader::GetInstructionPointer
FUNC 104f0 25c 0 google_breakpad::UContextReader::FillCPUContext
FUNC 10750 c7 0 isLegalUTF8
FUNC 10820 fd 0 ConvertUTF32toUTF16
FUNC 10920 fe 0 ConvertUTF16toUTF32
FUNC 10a20 1ff 0 ConvertUTF16toUTF8
FUNC 10c20 2b 0 isLegalUTF8Sequence
FUNC 10c50 26f 0 ConvertUTF8toUTF16
FUNC 10ec0 19a 0 ConvertUTF32toUTF8
FUNC 11060 287 0 ConvertUTF8toUTF32
PUBLIC 15f8 0 _init
PUBLIC 19f0 0 google_breakpad::PageAllocator::FreeAll() [clone .isra.7]
PUBLIC 1a3a 0 google_breakpad::ProcCpuInfoReader::GetValueAndLen(unsigned long*) [clone .isra.20] [clone .part.21]
PUBLIC 1a5a 0 google_breakpad::TypedMDRVA<MDRawDirectory>::CopyIndex(unsigned int, MDRawDirectory*) [clone .isra.32] [clone .part.33]
PUBLIC 1a7a 0 google_breakpad::TypedMDRVA<MDRawDirectory>::CopyIndex(unsigned int, MDRawDirectory*) [clone .isra.32]
PUBLIC 1a98 0 google_breakpad::TypedMDRVA<unsigned int>::CopyIndexAfterObject(unsigned int, void const*, unsigned long) [clone .isra.34] [clone .part.35]
PUBLIC 1ab8 0 (anonymous namespace)::MinidumpWriter::MinidumpWriter(char const*, int, google_breakpad::ExceptionHandler::CrashContext const*, std::list<google_breakpad::MappingEntry, std::allocator<google_breakpad::MappingEntry> > const&, std::list<google_breakpad::AppMemory, std::allocator<google_breakpad::AppMemory> > const&, google_breakpad::LinuxDumper*) [clone .part.92]
PUBLIC 1ad8 0 (anonymous namespace)::MinidumpWriter::~MinidumpWriter() [clone .constprop.118]
PUBLIC 1b04 0 (anonymous namespace)::MinidumpWriter::WriteFile(MDLocationDescriptor*, char const*) [clone .constprop.115]
PUBLIC 1cce 0 (anonymous namespace)::MinidumpWriter::WriteProcFile(MDLocationDescriptor*, int, char const*) [clone .constprop.114]
PUBLIC 1d10 0 _start
PUBLIC 1d40 0 deregister_tm_clones
PUBLIC 1d80 0 register_tm_clones
PUBLIC 1dc0 0 __do_global_dtors_aux
PUBLIC 1de0 0 frame_dummy
PUBLIC 1e06 0 dumpCallback(google_breakpad::MinidumpDescriptor const&, void*, bool)
PUBLIC 1e3f 0 main
PUBLIC 1eac 0 google_breakpad::MinidumpDescriptor::path() const
PUBLIC 1ebe 0 google_breakpad::MinidumpDescriptor::~MinidumpDescriptor()
PUBLIC 1eee 0 Breakpad::~Breakpad()
PUBLIC 1f1a 0 Breakpad::dumpCallback(google_breakpad::MinidumpDescriptor const&, void*, bool)
PUBLIC 1f54 0 Breakpad::Breakpad()
PUBLIC 204e 0 google_breakpad::MicrodumpExtraInfo::MicrodumpExtraInfo()
PUBLIC 207c 0 google_breakpad::MinidumpDescriptor::MinidumpDescriptor(std::string const&)
PUBLIC 2140 0 google_breakpad::ExceptionHandler::InstallHandlersLocked()
PUBLIC 2270 0 google_breakpad::ExceptionHandler::RestoreHandlersLocked()
PUBLIC 22f0 0 google_breakpad::ExceptionHandler::~ExceptionHandler()
PUBLIC 2690 0 google_breakpad::ExceptionHandler::SendContinueSignalToChild()
PUBLIC 2770 0 google_breakpad::ExceptionHandler::GenerateDump(google_breakpad::ExceptionHandler::CrashContext*)
PUBLIC 2c00 0 google_breakpad::ExceptionHandler::HandleSignal(int, siginfo_t*, void*)
PUBLIC 2de0 0 google_breakpad::ExceptionHandler::SignalHandler(int, siginfo_t*, void*)
PUBLIC 2f80 0 google_breakpad::ExceptionHandler::SimulateSignalDelivery(int)
PUBLIC 2fe0 0 google_breakpad::ExceptionHandler::WaitForContinueSignal()
PUBLIC 30b0 0 google_breakpad::ExceptionHandler::DoDump(int, void const*, unsigned long)
PUBLIC 3130 0 google_breakpad::ExceptionHandler::ThreadEntry(void*)
PUBLIC 3160 0 google_breakpad::ExceptionHandler::WriteMinidump()
PUBLIC 32e0 0 google_breakpad::ExceptionHandler::AddMappingInfo(std::string const&, unsigned char const*, unsigned long, unsigned long, unsigned long)
PUBLIC 3390 0 google_breakpad::ExceptionHandler::RegisterAppMemory(void*, unsigned long)
PUBLIC 3400 0 google_breakpad::ExceptionHandler::UnregisterAppMemory(void*)
PUBLIC 3450 0 google_breakpad::ExceptionHandler::WriteMinidumpForChild(int, int, std::string const&, bool (*)(google_breakpad::MinidumpDescriptor const&, void*, bool), void*)
PUBLIC 35f0 0 google_breakpad::ExceptionHandler::ExceptionHandler(google_breakpad::MinidumpDescriptor const&, bool (*)(void*), bool (*)(google_breakpad::MinidumpDescriptor const&, void*, bool), void*, bool, int)
PUBLIC 3950 0 google_breakpad::ExceptionHandler::WriteMinidump(std::string const&, bool (*)(google_breakpad::MinidumpDescriptor const&, void*, bool), void*)
PUBLIC 3b20 0 void std::vector<google_breakpad::ExceptionHandler*, std::allocator<google_breakpad::ExceptionHandler*> >::_M_emplace_back_aux<google_breakpad::ExceptionHandler*>(google_breakpad::ExceptionHandler*&&)
PUBLIC 3c10 0 std::string::_Rep::_M_dispose(std::allocator<char> const&) [clone .part.0]
PUBLIC 3c50 0 google_breakpad::MinidumpDescriptor::MinidumpDescriptor(google_breakpad::MinidumpDescriptor const&)
PUBLIC 3ce0 0 google_breakpad::MinidumpDescriptor::UpdatePath()
PUBLIC 3fd0 0 google_breakpad::MinidumpDescriptor::operator=(google_breakpad::MinidumpDescriptor const&)
PUBLIC 4080 0 logger::write(char const*, unsigned long)
PUBLIC 40c0 0 google_breakpad::WriteMicrodump(int, void const*, unsigned long, std::list<google_breakpad::MappingEntry, std::allocator<google_breakpad::MappingEntry> > const&, google_breakpad::MicrodumpExtraInfo const&)
PUBLIC 5bb0 0 void std::vector<unsigned char, google_breakpad::PageStdAllocator<unsigned char> >::_M_range_insert<unsigned char const*>(__gnu_cxx::__normal_iterator<unsigned char*, std::vector<unsigned char, google_breakpad::PageStdAllocator<unsigned char> > >, unsigned char const*, unsigned char const*, std::forward_iterator_tag)
PUBLIC 5fb0 0 google_breakpad::LinuxDumper::LateInit()
PUBLIC 5fc0 0 google_breakpad::LinuxDumper::LinuxDumper(int, char const*)
PUBLIC 6810 0 google_breakpad::LinuxDumper::~LinuxDumper()
PUBLIC 6880 0 google_breakpad::LinuxDumper::~LinuxDumper()
PUBLIC 68a0 0 google_breakpad::LinuxDumper::GetMappingAbsolutePath(google_breakpad::MappingInfo const&, char*) const
PUBLIC 68f0 0 google_breakpad::(anonymous namespace)::ElfFileSoName(google_breakpad::LinuxDumper const&, google_breakpad::MappingInfo const&, char*, unsigned long) [clone .constprop.56]
PUBLIC 6a70 0 google_breakpad::LinuxDumper::HandleDeletedFileInMapping(char*) const [clone .part.10] [clone .constprop.57]
PUBLIC 6bf0 0 google_breakpad::LinuxDumper::GetMappingEffectiveNameAndPath(google_breakpad::MappingInfo const&, char*, unsigned long, char*, unsigned long)
PUBLIC 6ce0 0 google_breakpad::LinuxDumper::ReadAuxv()
PUBLIC 6dd0 0 google_breakpad::LinuxDumper::Init()
PUBLIC 6e10 0 google_breakpad::LinuxDumper::FindMapping(void const*) const
PUBLIC 6e60 0 google_breakpad::LinuxDumper::GetStackInfo(void const**, unsigned long*, unsigned long)
PUBLIC 6ee0 0 google_breakpad::LinuxDumper::HandleDeletedFileInMapping(char*) const
PUBLIC 6f40 0 google_breakpad::LinuxDumper::ElfFileIdentifierForMapping(google_breakpad::MappingInfo const&, bool, unsigned int, google_breakpad::wasteful_vector<unsigned char>&)
PUBLIC 7260 0 google_breakpad::LinuxDumper::EnumerateMappings()
PUBLIC 7b80 0 google_breakpad::PageAllocator::Alloc(unsigned long)
PUBLIC 7cd0 0 std::vector<google_breakpad::MappingInfo*, google_breakpad::PageStdAllocator<google_breakpad::MappingInfo*> >::_M_default_append(unsigned long)
PUBLIC 7f70 0 google_breakpad::LinuxPtraceDumper::IsPostMortem() const
PUBLIC 7f80 0 google_breakpad::LinuxPtraceDumper::CopyFromProcess(void*, int, void const*, unsigned long)
PUBLIC 80d0 0 google_breakpad::LinuxPtraceDumper::BuildProcPath(char*, int, char const*) const
PUBLIC 8190 0 google_breakpad::LinuxPtraceDumper::ThreadsResume()
PUBLIC 8250 0 google_breakpad::LinuxPtraceDumper::EnumerateThreads()
PUBLIC 8830 0 google_breakpad::LinuxPtraceDumper::GetThreadInfoByIndex(unsigned long, google_breakpad::ThreadInfo*)
PUBLIC 8d30 0 google_breakpad::LinuxPtraceDumper::LinuxPtraceDumper(int)
PUBLIC 8d60 0 google_breakpad::LinuxPtraceDumper::ThreadsSuspend()
PUBLIC 8fa0 0 google_breakpad::LinuxPtraceDumper::~LinuxPtraceDumper()
PUBLIC 8fc0 0 google_breakpad::LinuxPtraceDumper::~LinuxPtraceDumper()
PUBLIC 8fe0 0 std::vector<int, google_breakpad::PageStdAllocator<int> >::_M_default_append(unsigned long)
PUBLIC 9280 0 (anonymous namespace)::MinidumpWriter::WriteThreadListStream(MDRawDirectory*) [clone .constprop.104]
PUBLIC a030 0 (anonymous namespace)::MinidumpWriter::Dump() [clone .constprop.103]
PUBLIC c210 0 google_breakpad::WriteMinidump(char const*, std::list<google_breakpad::MappingEntry, std::allocator<google_breakpad::MappingEntry> > const&, std::list<google_breakpad::AppMemory, std::allocator<google_breakpad::AppMemory> > const&, google_breakpad::LinuxDumper*)
PUBLIC c530 0 google_breakpad::WriteMinidump(char const*, int, int)
PUBLIC c980 0 (anonymous namespace)::WriteMinidumpImpl(char const*, int, long, int, void const*, unsigned long, std::list<google_breakpad::MappingEntry, std::allocator<google_breakpad::MappingEntry> > const&, std::list<google_breakpad::AppMemory, std::allocator<google_breakpad::AppMemory> > const&)
PUBLIC cd60 0 google_breakpad::WriteMinidump(char const*, int, void const*, unsigned long)
PUBLIC ce40 0 google_breakpad::WriteMinidump(int, int, void const*, unsigned long)
PUBLIC cf20 0 google_breakpad::WriteMinidump(char const*, int, void const*, unsigned long, std::list<google_breakpad::MappingEntry, std::allocator<google_breakpad::MappingEntry> > const&, std::list<google_breakpad::AppMemory, std::allocator<google_breakpad::AppMemory> > const&)
PUBLIC cf50 0 google_breakpad::WriteMinidump(int, int, void const*, unsigned long, std::list<google_breakpad::MappingEntry, std::allocator<google_breakpad::MappingEntry> > const&, std::list<google_breakpad::AppMemory, std::allocator<google_breakpad::AppMemory> > const&)
PUBLIC cf80 0 google_breakpad::WriteMinidump(char const*, long, int, void const*, unsigned long, std::list<google_breakpad::MappingEntry, std::allocator<google_breakpad::MappingEntry> > const&, std::list<google_breakpad::AppMemory, std::allocator<google_breakpad::AppMemory> > const&)
PUBLIC cfb0 0 google_breakpad::WriteMinidump(int, long, int, void const*, unsigned long, std::list<google_breakpad::MappingEntry, std::allocator<google_breakpad::MappingEntry> > const&, std::list<google_breakpad::AppMemory, std::allocator<google_breakpad::AppMemory> > const&)
PUBLIC cfe0 0 google_breakpad::ProcCpuInfoReader::GetNextField(char const**)
PUBLIC d240 0 std::vector<char, google_breakpad::PageStdAllocator<char> >::resize(unsigned long)
PUBLIC d4c0 0 void std::vector<MDMemoryDescriptor, google_breakpad::PageStdAllocator<MDMemoryDescriptor> >::_M_emplace_back_aux<MDMemoryDescriptor const&>(MDMemoryDescriptor const&)
PUBLIC d730 0 google_breakpad::TypedMDRVA<MDString>::CopyIndexAfterObject(unsigned int, void const*, unsigned long) [clone .isra.7] [clone .part.8]
PUBLIC d760 0 google_breakpad::MinidumpFileWriter::MinidumpFileWriter()
PUBLIC d780 0 google_breakpad::MinidumpFileWriter::Open(char const*)
PUBLIC d800 0 google_breakpad::MinidumpFileWriter::SetFile(int)
PUBLIC d830 0 google_breakpad::MinidumpFileWriter::Close()
PUBLIC d890 0 google_breakpad::MinidumpFileWriter::~MinidumpFileWriter()
PUBLIC d8b0 0 google_breakpad::MinidumpFileWriter::Allocate(unsigned long)
PUBLIC d970 0 google_breakpad::MinidumpFileWriter::Copy(unsigned int, void const*, long)
PUBLIC da70 0 google_breakpad::MinidumpFileWriter::CopyStringToMDString(wchar_t const*, unsigned int, google_breakpad::TypedMDRVA<MDString>*)
PUBLIC db40 0 google_breakpad::MinidumpFileWriter::CopyStringToMDString(char const*, unsigned int, google_breakpad::TypedMDRVA<MDString>*)
PUBLIC dc10 0 google_breakpad::UntypedMDRVA::Allocate(unsigned long)
PUBLIC dc60 0 google_breakpad::UntypedMDRVA::Copy(unsigned int, void const*, unsigned long)
PUBLIC dcf0 0 google_breakpad::MinidumpFileWriter::WriteMemory(void const*, unsigned long, MDMemoryDescriptor*)
PUBLIC ddc0 0 google_breakpad::MinidumpFileWriter::WriteString(wchar_t const*, unsigned int, MDLocationDescriptor*)
PUBLIC ddd0 0 google_breakpad::MinidumpFileWriter::WriteString(char const*, unsigned int, MDLocationDescriptor*)
PUBLIC dde0 0 bool google_breakpad::MinidumpFileWriter::WriteStringCore<wchar_t>(wchar_t const*, unsigned int, MDLocationDescriptor*)
PUBLIC e000 0 bool google_breakpad::MinidumpFileWriter::WriteStringCore<char>(char const*, unsigned int, MDLocationDescriptor*)
PUBLIC e210 0 google_breakpad::UTF8ToUTF16Char(char const*, int, unsigned short*)
PUBLIC e2b0 0 google_breakpad::UTF32ToUTF16Char(wchar_t, unsigned short*)
PUBLIC e310 0 google_breakpad::UTF16ToUTF8(std::vector<unsigned short, std::allocator<unsigned short> > const&, bool)
PUBLIC e450 0 google_breakpad::UTF32ToUTF16(wchar_t const*, std::vector<unsigned short, std::allocator<unsigned short> >*)
PUBLIC e520 0 google_breakpad::UTF8ToUTF16(char const*, std::vector<unsigned short, std::allocator<unsigned short> >*)
PUBLIC e5f0 0 std::vector<unsigned short, std::allocator<unsigned short> >::_M_fill_insert(__gnu_cxx::__normal_iterator<unsigned short*, std::vector<unsigned short, std::allocator<unsigned short> > >, unsigned long, unsigned short const&)
PUBLIC e8b0 0 std::vector<unsigned short, std::allocator<unsigned short> >::_M_default_append(unsigned long)
PUBLIC ea00 0 google_breakpad::IsValidElf(void const*)
PUBLIC ea20 0 google_breakpad::ElfClass(void const*)
PUBLIC ea30 0 google_breakpad::FindElfSection(void const*, char const*, unsigned int, void const**, unsigned long*, int*)
PUBLIC ee90 0 google_breakpad::FindElfSegment(void const*, unsigned int, void const**, unsigned long*, int*)
PUBLIC f120 0 google_breakpad::bytes_to_hex_string(unsigned char const*, unsigned long)
PUBLIC f220 0 google_breakpad::FileID::FileID(char const*)
PUBLIC f240 0 google_breakpad::FileID::ConvertIdentifierToUUIDString(google_breakpad::wasteful_vector<unsigned char> const&)
PUBLIC f2e0 0 google_breakpad::FileID::ConvertIdentifierToString(google_breakpad::wasteful_vector<unsigned char> const&)
PUBLIC f300 0 google_breakpad::FileID::ElfFileIdentifierFromMappedFile(void const*, google_breakpad::wasteful_vector<unsigned char>&)
PUBLIC f740 0 google_breakpad::FileID::ElfFileIdentifier(google_breakpad::wasteful_vector<unsigned char>&)
PUBLIC f7a0 0 CreateGUID(MDGUID*)
PUBLIC f820 0 GUIDToString(MDGUID const*, char*, int)
PUBLIC f890 0 GUIDGenerator::InitOnceImpl()
PUBLIC f8b0 0 my_strlen
PUBLIC f8d0 0 my_strcmp
PUBLIC f920 0 my_strncmp
PUBLIC f980 0 my_strtoui
PUBLIC f9d0 0 my_uint_len
PUBLIC fa10 0 my_uitos
PUBLIC fa50 0 my_strchr
PUBLIC fa90 0 my_strrchr
PUBLIC fac0 0 my_memchr
PUBLIC fb00 0 my_read_hex_ptr
PUBLIC fb80 0 my_read_decimal_ptr
PUBLIC fbc0 0 my_memset
PUBLIC fbe0 0 my_strlcpy
PUBLIC fc20 0 my_strlcat
PUBLIC fc60 0 my_isspace
PUBLIC fca0 0 google_breakpad::MemoryMappedFile::MemoryMappedFile()
PUBLIC fcb0 0 google_breakpad::MemoryMappedFile::Unmap()
PUBLIC fd00 0 google_breakpad::MemoryMappedFile::~MemoryMappedFile()
PUBLIC fd10 0 google_breakpad::MemoryMappedFile::Map(char const*, unsigned long)
PUBLIC fe90 0 google_breakpad::MemoryMappedFile::MemoryMappedFile(char const*, unsigned long)
PUBLIC feb0 0 google_breakpad::SafeReadLink(char const*, char*, unsigned long)
PUBLIC fef0 0 google_breakpad::(anonymous namespace)::CrashGenerationClientImpl::~CrashGenerationClientImpl()
PUBLIC ff00 0 google_breakpad::(anonymous namespace)::CrashGenerationClientImpl::RequestDump(void const*, unsigned long)
PUBLIC 100e0 0 google_breakpad::(anonymous namespace)::CrashGenerationClientImpl::~CrashGenerationClientImpl()
PUBLIC 100f0 0 google_breakpad::CrashGenerationClient::TryCreate(int)
PUBLIC 10120 0 google_breakpad::ThreadInfo::GetInstructionPointer() const
PUBLIC 10130 0 google_breakpad::ThreadInfo::FillCPUContext(MDRawContextAMD64*) const
PUBLIC 10430 0 google_breakpad::ThreadInfo::GetGeneralPurposeRegisters(void**, unsigned long*)
PUBLIC 10480 0 google_breakpad::ThreadInfo::GetFloatingPointRegisters(void**, unsigned long*)
PUBLIC 104d0 0 google_breakpad::UContextReader::GetStackPointer(ucontext const*)
PUBLIC 104e0 0 google_breakpad::UContextReader::GetInstructionPointer(ucontext const*)
PUBLIC 104f0 0 google_breakpad::UContextReader::FillCPUContext(MDRawContextAMD64*, ucontext const*, _libc_fpstate const*)
PUBLIC 10750 0 isLegalUTF8
PUBLIC 10820 0 ConvertUTF32toUTF16
PUBLIC 10920 0 ConvertUTF16toUTF32
PUBLIC 10a20 0 ConvertUTF16toUTF8
PUBLIC 10c20 0 isLegalUTF8Sequence
PUBLIC 10c50 0 ConvertUTF8toUTF16
PUBLIC 10ec0 0 ConvertUTF32toUTF8
PUBLIC 11060 0 ConvertUTF8toUTF32
PUBLIC 112f0 0 __libc_csu_init
PUBLIC 11360 0 __libc_csu_fini
PUBLIC 11364 0 _fini
STACK CFI INIT 1d10 2a .cfa: $rsp 8 + .ra: .cfa -8 + ^
STACK CFI INIT 1620 3d0 .cfa: $rsp 16 + .ra: .cfa -8 + ^
STACK CFI 1626 .cfa: $rsp 24 +
STACK CFI INIT 1eac 12 .cfa: $rsp 8 + .ra: .cfa -8 + ^
STACK CFI 1ead $rbp: .cfa -16 + ^ .cfa: $rsp 16 +
STACK CFI 1eb0 .cfa: $rbp 16 +
STACK CFI 1ebd .cfa: $rsp 8 +
STACK CFI INIT 1e06 39 .cfa: $rsp 8 + .ra: .cfa -8 + ^
STACK CFI 1e07 $rbp: .cfa -16 + ^ .cfa: $rsp 16 +
STACK CFI 1e0a .cfa: $rbp 16 +
STACK CFI 1e3e .cfa: $rsp 8 +
STACK CFI INIT 1ebe 2f .cfa: $rsp 8 + .ra: .cfa -8 + ^
STACK CFI 1ebf $rbp: .cfa -16 + ^ .cfa: $rsp 16 +
STACK CFI 1ec2 .cfa: $rbp 16 +
STACK CFI 1eec .cfa: $rsp 8 +
STACK CFI INIT 1eee 2b .cfa: $rsp 8 + .ra: .cfa -8 + ^
STACK CFI 1eef $rbp: .cfa -16 + ^ .cfa: $rsp 16 +
STACK CFI 1ef2 .cfa: $rbp 16 +
STACK CFI 1f18 .cfa: $rsp 8 +
STACK CFI INIT 1e3f 6c .cfa: $rsp 8 + .ra: .cfa -8 + ^
STACK CFI 1e40 $rbp: .cfa -16 + ^ .cfa: $rsp 16 +
STACK CFI 1e43 .cfa: $rbp 16 +
STACK CFI 1e4b $rbx: .cfa -24 + ^
STACK CFI 1eaa .cfa: $rsp 8 +
STACK CFI INIT 204e 2e .cfa: $rsp 8 + .ra: .cfa -8 + ^
STACK CFI 204f $rbp: .cfa -16 + ^ .cfa: $rsp 16 +
STACK CFI 2052 .cfa: $rbp 16 +
STACK CFI 207b .cfa: $rsp 8 +
STACK CFI INIT 207c c4 .cfa: $rsp 8 + .ra: .cfa -8 + ^
STACK CFI 207d $rbp: .cfa -16 + ^ .cfa: $rsp 16 +
STACK CFI 2080 .cfa: $rbp 16 +
STACK CFI 2085 $rbx: .cfa -24 + ^
STACK CFI 213f .cfa: $rsp 8 +
STACK CFI INIT 1f1a 39 .cfa: $rsp 8 + .ra: .cfa -8 + ^
STACK CFI 1f1b $rbp: .cfa -16 + ^ .cfa: $rsp 16 +
STACK CFI 1f1e .cfa: $rbp 16 +
STACK CFI 1f52 .cfa: $rsp 8 +
STACK CFI INIT 1f54 f9 .cfa: $rsp 8 + .ra: .cfa -8 + ^
STACK CFI 1f55 $rbp: .cfa -16 + ^ .cfa: $rsp 16 +
STACK CFI 1f58 .cfa: $rbp 16 +
STACK CFI 1f5d $rbx: .cfa -24 + ^
STACK CFI 204c .cfa: $rsp 8 +
STACK CFI INIT 2140 12b .cfa: $rsp 8 + .ra: .cfa -8 + ^
STACK CFI 214f $r14: .cfa -16 + ^ .cfa: $rsp 16 +
STACK CFI 2151 $r13: .cfa -24 + ^ .cfa: $rsp 24 +
STACK CFI 2155 $r12: .cfa -32 + ^ .cfa: $rsp 32 +
STACK CFI 2156 $rbp: .cfa -40 + ^ .cfa: $rsp 40 +
STACK CFI 215e $rbx: .cfa -48 + ^ .cfa: $rsp 48 +
STACK CFI 217b .cfa: $rsp 208 +
STACK CFI 21b2 .cfa: $rsp 48 +
STACK CFI 21b5 $rbx: $rbx .cfa: $rsp 40 +
STACK CFI 21b6 $rbp: $rbp .cfa: $rsp 32 +
STACK CFI 21b8 $r12: $r12 .cfa: $rsp 24 +
STACK CFI 21ba $r13: $r13 .cfa: $rsp 16 +
STACK CFI 21bc $r14: $r14 .cfa: $rsp 8 +
STACK CFI 21c0 $r12: .cfa -32 + ^ $r13: .cfa -24 + ^ $r14: .cfa -16 + ^ $rbp: .cfa -40 + ^ $rbx: .cfa -48 + ^ .cfa: $rsp 208 +
STACK CFI 2253 .cfa: $rsp 48 +
STACK CFI 2259 $rbx: $rbx .cfa: $rsp 40 +
STACK CFI 225a $rbp: $rbp .cfa: $rsp 32 +
STACK CFI 225c $r12: $r12 .cfa: $rsp 24 +
STACK CFI 225e $r13: $r13 .cfa: $rsp 16 +
STACK CFI 2260 $r14: $r14 .cfa: $rsp 8 +
STACK CFI INIT 2270 7c .cfa: $rsp 8 + .ra: .cfa -8 + ^
STACK CFI 227b $r13: .cfa -16 + ^ .cfa: $rsp 16 +
STACK CFI 227d $r12: .cfa -24 + ^ .cfa: $rsp 24 +
STACK CFI 2285 $rbp: .cfa -32 + ^ .cfa: $rsp 32 +
STACK CFI 2286 $rbx: .cfa -40 + ^ .cfa: $rsp 40 +
STACK CFI 229e .cfa: $rsp 48 +
STACK CFI 22d1 .cfa: $rsp 40 +
STACK CFI 22d2 $rbx: $rbx .cfa: $rsp 32 +
STACK CFI 22d3 $rbp: $rbp .cfa: $rsp 24 +
STACK CFI 22d5 $r12: $r12 .cfa: $rsp 16 +
STACK CFI 22d7 $r13: $r13 .cfa: $rsp 8 +
STACK CFI 22e0 $r12: .cfa -24 + ^ $r13: .cfa -16 + ^ $rbp: .cfa -32 + ^ $rbx: .cfa -40 + ^ .cfa: $rsp 48 +
STACK CFI INIT 22f0 393 .cfa: $rsp 8 + .ra: .cfa -8 + ^
STACK CFI 22f2 $r12: .cfa -16 + ^ .cfa: $rsp 16 +
STACK CFI 22f3 $rbp: .cfa -24 + ^ .cfa: $rsp 24 +
STACK CFI 22f4 $rbx: .cfa -32 + ^ .cfa: $rsp 32 +
STACK CFI 2302 .cfa: $rsp 96 +
STACK CFI 248c .cfa: $rsp 32 +
STACK CFI 248d .cfa: $rsp 24 +
STACK CFI 248e .cfa: $rsp 16 +
STACK CFI 2490 .cfa: $rsp 8 +
STACK CFI 2498 .cfa: $rsp 96 +
STACK CFI INIT 2690 d1 .cfa: $rsp 8 + .ra: .cfa -8 + ^
STACK CFI 2692 $r15: .cfa -16 + ^ .cfa: $rsp 16 +
STACK CFI 2694 $r14: .cfa -24 + ^ .cfa: $rsp 24 +
STACK CFI 2699 $r13: .cfa -32 + ^ .cfa: $rsp 32 +
STACK CFI 269b $r12: .cfa -40 + ^ .cfa: $rsp 40 +
STACK CFI 26a3 $rbp: .cfa -48 + ^ .cfa: $rsp 48 +
STACK CFI 26a4 $rbx: .cfa -56 + ^ .cfa: $rsp 56 +
STACK CFI 26b3 .cfa: $rsp 64 +
STACK CFI 26df .cfa: $rsp 56 +
STACK CFI 26e0 .cfa: $rsp 48 +
STACK CFI 26e1 .cfa: $rsp 40 +
STACK CFI 26e3 .cfa: $rsp 32 +
STACK CFI 26e5 .cfa: $rsp 24 +
STACK CFI 26e7 .cfa: $rsp 16 +
STACK CFI 26e9 .cfa: $rsp 8 +
STACK CFI 26f0 .cfa: $rsp 64 +
STACK CFI 273c .cfa: $rsp 56 +
STACK CFI 2749 .cfa: $rsp 48 +
STACK CFI 274a .cfa: $rsp 40 +
STACK CFI 274c .cfa: $rsp 32 +
STACK CFI 274e .cfa: $rsp 24 +
STACK CFI 2750 .cfa: $rsp 16 +
STACK CFI 2752 .cfa: $rsp 8 +
STACK CFI 2757 .cfa: $rsp 64 +
STACK CFI INIT 2770 487 .cfa: $rsp 8 + .ra: .cfa -8 + ^
STACK CFI 2772 $r15: .cfa -16 + ^ .cfa: $rsp 16 +
STACK CFI 2774 $r14: .cfa -24 + ^ .cfa: $rsp 24 +
STACK CFI 2776 $r13: .cfa -32 + ^ .cfa: $rsp 32 +
STACK CFI 2778 $r12: .cfa -40 + ^ .cfa: $rsp 40 +
STACK CFI 2779 $rbp: .cfa -48 + ^ .cfa: $rsp 48 +
STACK CFI 277a $rbx: .cfa -56 + ^ .cfa: $rsp 56 +
STACK CFI 2784 .cfa: $rsp 144 +
STACK CFI 279e .cfa: $rsp 56 +
STACK CFI 27a1 .cfa: $rsp 48 +
STACK CFI 27a2 .cfa: $rsp 40 +
STACK CFI 27a4 .cfa: $rsp 32 +
STACK CFI 27a6 .cfa: $rsp 24 +
STACK CFI 27a8 .cfa: $rsp 16 +
STACK CFI 27aa .cfa: $rsp 8 +
STACK CFI 27b0 .cfa: $rsp 144 +
STACK CFI INIT 2c00 1d2 .cfa: $rsp 8 + .ra: .cfa -8 + ^
STACK CFI 2c02 $r13: .cfa -16 + ^ .cfa: $rsp 16 +
STACK CFI 2c04 $r12: .cfa -24 + ^ .cfa: $rsp 24 +
STACK CFI 2c08 $rbp: .cfa -32 + ^ .cfa: $rsp 32 +
STACK CFI 2c09 $rbx: .cfa -40 + ^ .cfa: $rsp 40 +
STACK CFI 2c13 .cfa: $rsp 48 +
STACK CFI 2c29 .cfa: $rsp 40 +
STACK CFI 2c2a .cfa: $rsp 32 +
STACK CFI 2c2b .cfa: $rsp 24 +
STACK CFI 2c2d .cfa: $rsp 16 +
STACK CFI 2c2f .cfa: $rsp 8 +
STACK CFI 2c30 .cfa: $rsp 48 +
STACK CFI 2d97 .cfa: $rsp 40 +
STACK CFI 2da2 .cfa: $rsp 32 +
STACK CFI 2da3 .cfa: $rsp 24 +
STACK CFI 2da5 .cfa: $rsp 16 +
STACK CFI 2da7 .cfa: $rsp 8 +
STACK CFI 2db0 .cfa: $rsp 48 +
STACK CFI INIT 2de0 19f .cfa: $rsp 8 + .ra: .cfa -8 + ^
STACK CFI 2de2 $r14: .cfa -16 + ^ .cfa: $rsp 16 +
STACK CFI 2de4 $r13: .cfa -24 + ^ .cfa: $rsp 24 +
STACK CFI 2de9 $r12: .cfa -32 + ^ .cfa: $rsp 32 +
STACK CFI 2dea $rbp: .cfa -40 + ^ .cfa: $rsp 40 +
STACK CFI 2dee $rbx: .cfa -48 + ^ .cfa: $rsp 48 +
STACK CFI 2dff .cfa: $rsp 208 +
STACK CFI 2eb3 .cfa: $rsp 48 +
STACK CFI 2eb4 .cfa: $rsp 40 +
STACK CFI 2eb5 .cfa: $rsp 32 +
STACK CFI 2eb7 .cfa: $rsp 24 +
STACK CFI 2eb9 .cfa: $rsp 16 +
STACK CFI 2ebb .cfa: $rsp 8 +
STACK CFI 2ec0 .cfa: $rsp 208 +
STACK CFI 2f13 .cfa: $rsp 48 +
STACK CFI 2f14 .cfa: $rsp 40 +
STACK CFI 2f15 .cfa: $rsp 32 +
STACK CFI 2f17 .cfa: $rsp 24 +
STACK CFI 2f19 .cfa: $rsp 16 +
STACK CFI 2f1b .cfa: $rsp 8 +
STACK CFI 2f20 .cfa: $rsp 208 +
STACK CFI INIT 2f80 56 .cfa: $rsp 8 + .ra: .cfa -8 + ^
STACK CFI 2f87 .cfa: $rsp 1104 +
STACK CFI 2fd5 .cfa: $rsp 8 +
STACK CFI INIT 2fe0 c2 .cfa: $rsp 8 + .ra: .cfa -8 + ^
STACK CFI 2fe2 $r15: .cfa -16 + ^ .cfa: $rsp 16 +
STACK CFI 2fe4 $r14: .cfa -24 + ^ .cfa: $rsp 24 +
STACK CFI 2fe9 $r13: .cfa -32 + ^ .cfa: $rsp 32 +
STACK CFI 2feb $r12: .cfa -40 + ^ .cfa: $rsp 40 +
STACK CFI 2fef $rbp: .cfa -48 + ^ .cfa: $rsp 48 +
STACK CFI 2ff0 $rbx: .cfa -56 + ^ .cfa: $rsp 56 +
STACK CFI 2ff9 .cfa: $rsp 80 +
STACK CFI 3023 .cfa: $rsp 56 +
STACK CFI 3024 .cfa: $rsp 48 +
STACK CFI 3025 .cfa: $rsp 40 +
STACK CFI 3027 .cfa: $rsp 32 +
STACK CFI 3029 .cfa: $rsp 24 +
STACK CFI 302b .cfa: $rsp 16 +
STACK CFI 302d .cfa: $rsp 8 +
STACK CFI 3030 .cfa: $rsp 80 +
STACK CFI 308d .cfa: $rsp 56 +
STACK CFI 308e .cfa: $rsp 48 +
STACK CFI 308f .cfa: $rsp 40 +
STACK CFI 3091 .cfa: $rsp 32 +
STACK CFI 3093 .cfa: $rsp 24 +
STACK CFI 3095 .cfa: $rsp 16 +
STACK CFI 3097 .cfa: $rsp 8 +
STACK CFI 3098 .cfa: $rsp 80 +
STACK CFI INIT 30b0 80 .cfa: $rsp 8 + .ra: .cfa -8 + ^
STACK CFI 30c6 .cfa: $rsp 16 +
STACK CFI 30e6 .cfa: $rsp 24 +
STACK CFI 30ec .cfa: $rsp 32 +
STACK CFI 30f6 .cfa: $rsp 24 +
STACK CFI 30f7 .cfa: $rsp 16 +
STACK CFI 30fb .cfa: $rsp 8 +
STACK CFI 3110 .cfa: $rsp 16 +
STACK CFI 311b .cfa: $rsp 24 +
STACK CFI 3120 .cfa: $rsp 32 +
STACK CFI 312a .cfa: $rsp 24 +
STACK CFI 312b .cfa: $rsp 16 +
STACK CFI 312f .cfa: $rsp 8 +
STACK CFI INIT 3130 28 .cfa: $rsp 8 + .ra: .cfa -8 + ^
STACK CFI 3131 $rbx: .cfa -16 + ^ .cfa: $rsp 16 +
STACK CFI 3157 .cfa: $rsp 8 +
STACK CFI INIT 3160 178 .cfa: $rsp 8 + .ra: .cfa -8 + ^
STACK CFI 3161 $rbx: .cfa -16 + ^ .cfa: $rsp 16 +
STACK CFI 3168 .cfa: $rsp 1616 +
STACK CFI 31d2 .cfa: $rsp 16 +
STACK CFI 31d5 .cfa: $rsp 8 +
STACK CFI 31e0 .cfa: $rsp 1616 +
STACK CFI 3284 .cfa: $rsp 16 +
STACK CFI 3289 .cfa: $rsp 8 +
STACK CFI 3290 .cfa: $rsp 1616 +
STACK CFI INIT 32e0 ac .cfa: $rsp 8 + .ra: .cfa -8 + ^
STACK CFI 32e2 $r14: .cfa -16 + ^ .cfa: $rsp 16 +
STACK CFI 32e4 $r13: .cfa -24 + ^ .cfa: $rsp 24 +
STACK CFI 32e8 $rbp: .cfa -32 + ^ .cfa: $rsp 32 +
STACK CFI 32e9 $rbx: .cfa -40 + ^ .cfa: $rsp 40 +
STACK CFI 32f8 .cfa: $rsp 640 +
STACK CFI 337a .cfa: $rsp 40 +
STACK CFI 3382 .cfa: $rsp 32 +
STACK CFI 3383 .cfa: $rsp 24 +
STACK CFI 3385 .cfa: $rsp 16 +
STACK CFI 3387 .cfa: $rsp 8 +
STACK CFI INIT 3390 6e .cfa: $rsp 8 + .ra: .cfa -8 + ^
STACK CFI 3392 $r12: .cfa -16 + ^ .cfa: $rsp 16 +
STACK CFI 3393 $rbp: .cfa -24 + ^ .cfa: $rsp 24 +
STACK CFI 339b $rbx: .cfa -32 + ^ .cfa: $rsp 32 +
STACK CFI 33bf .cfa: $rsp 24 +
STACK CFI 33c0 .cfa: $rsp 16 +
STACK CFI 33c2 .cfa: $rsp 8 +
STACK CFI 33c8 .cfa: $rsp 32 +
STACK CFI 33f6 .cfa: $rsp 24 +
STACK CFI 33f7 .cfa: $rsp 16 +
STACK CFI 33f9 .cfa: $rsp 8 +
STACK CFI INIT 3400 42 .cfa: $rsp 8 + .ra: .cfa -8 + ^
STACK CFI 3401 $rbx: .cfa -16 + ^ .cfa: $rsp 16 +
STACK CFI 343a .cfa: $rsp 8 +
STACK CFI 3440 .cfa: $rsp 16 +
STACK CFI 3441 .cfa: $rsp 8 +
STACK CFI INIT 3450 19f .cfa: $rsp 8 + .ra: .cfa -8 + ^
STACK CFI 3452 $r15: .cfa -16 + ^ .cfa: $rsp 16 +
STACK CFI 3454 $r14: .cfa -24 + ^ .cfa: $rsp 24 +
STACK CFI 3459 $r13: .cfa -32 + ^ .cfa: $rsp 32 +
STACK CFI 345b $r12: .cfa -40 + ^ .cfa: $rsp 40 +
STACK CFI 345f $rbp: .cfa -48 + ^ .cfa: $rsp 48 +
STACK CFI 3460 $rbx: .cfa -56 + ^ .cfa: $rsp 56 +
STACK CFI 346d .cfa: $rsp 160 +
STACK CFI 352f .cfa: $rsp 56 +
STACK CFI 3530 .cfa: $rsp 48 +
STACK CFI 3531 .cfa: $rsp 40 +
STACK CFI 3533 .cfa: $rsp 32 +
STACK CFI 3535 .cfa: $rsp 24 +
STACK CFI 3537 .cfa: $rsp 16 +
STACK CFI 3539 .cfa: $rsp 8 +
STACK CFI 3540 .cfa: $rsp 160 +
STACK CFI INIT 3b20 ea .cfa: $rsp 8 + .ra: .cfa -8 + ^
STACK CFI 3b22 $r15: .cfa -16 + ^ .cfa: $rsp 16 +
STACK CFI 3b24 $r14: .cfa -24 + ^ .cfa: $rsp 24 +
STACK CFI 3b29 $r13: .cfa -32 + ^ .cfa: $rsp 32 +
STACK CFI 3b2b $r12: .cfa -40 + ^ .cfa: $rsp 40 +
STACK CFI 3b2f $rbp: .cfa -48 + ^ .cfa: $rsp 48 +
STACK CFI 3b30 $rbx: .cfa -56 + ^ .cfa: $rsp 56 +
STACK CFI 3b34 .cfa: $rsp 64 +
STACK CFI 3bba .cfa: $rsp 56 +
STACK CFI 3bbb .cfa: $rsp 48 +
STACK CFI 3bbc .cfa: $rsp 40 +
STACK CFI 3bbe .cfa: $rsp 32 +
STACK CFI 3bc0 .cfa: $rsp 24 +
STACK CFI 3bc2 .cfa: $rsp 16 +
STACK CFI 3bc4 .cfa: $rsp 8 +
STACK CFI 3bc8 .cfa: $rsp 64 +
STACK CFI INIT 35f0 35e .cfa: $rsp 8 + .ra: .cfa -8 + ^
STACK CFI 35f2 $r15: .cfa -16 + ^ .cfa: $rsp 16 +
STACK CFI 35f4 $r14: .cfa -24 + ^ .cfa: $rsp 24 +
STACK CFI 35f9 $r13: .cfa -32 + ^ .cfa: $rsp 32 +
STACK CFI 35ff $r12: .cfa -40 + ^ .cfa: $rsp 40 +
STACK CFI 3600 $rbp: .cfa -48 + ^ .cfa: $rsp 48 +
STACK CFI 3601 $rbx: .cfa -56 + ^ .cfa: $rsp 56 +
STACK CFI 3608 .cfa: $rsp 80 +
STACK CFI 3710 .cfa: $rsp 56 +
STACK CFI 3711 .cfa: $rsp 48 +
STACK CFI 3712 .cfa: $rsp 40 +
STACK CFI 3714 .cfa: $rsp 32 +
STACK CFI 3716 .cfa: $rsp 24 +
STACK CFI 3718 .cfa: $rsp 16 +
STACK CFI 371a .cfa: $rsp 8 +
STACK CFI 3720 .cfa: $rsp 80 +
STACK CFI INIT 3950 1ca .cfa: $rsp 8 + .ra: .cfa -8 + ^
STACK CFI 3951 $rbp: .cfa -16 + ^ .cfa: $rsp 16 +
STACK CFI 3954 .cfa: $rbp 16 +
STACK CFI 395c $r12: .cfa -48 + ^ $r13: .cfa -40 + ^ $r14: .cfa -32 + ^ $r15: .cfa -24 + ^
STACK CFI 397c $rbx: .cfa -56 + ^
STACK CFI 3a58 .cfa: $rsp 8 +
STACK CFI 3a60 .cfa: $rbp 16 +
STACK CFI INIT 3c10 32 .cfa: $rsp 8 + .ra: .cfa -8 + ^
STACK CFI INIT 3c50 8d .cfa: $rsp 8 + .ra: .cfa -8 + ^
STACK CFI 3c51 $rbp: .cfa -16 + ^ .cfa: $rsp 16 +
STACK CFI 3c52 $rbx: .cfa -24 + ^ .cfa: $rsp 24 +
STACK CFI 3c64 .cfa: $rsp 32 +
STACK CFI 3cbb .cfa: $rsp 24 +
STACK CFI 3cbc .cfa: $rsp 16 +
STACK CFI 3cbd .cfa: $rsp 8 +
STACK CFI 3cbe .cfa: $rsp 32 +
STACK CFI INIT 3ce0 2e2 .cfa: $rsp 8 + .ra: .cfa -8 + ^
STACK CFI 3ce2 $r13: .cfa -16 + ^ .cfa: $rsp 16 +
STACK CFI 3ce4 $r12: .cfa -24 + ^ .cfa: $rsp 24 +
STACK CFI 3ce5 $rbp: .cfa -32 + ^ .cfa: $rsp 32 +
STACK CFI 3ce6 $rbx: .cfa -40 + ^ .cfa: $rsp 40 +
STACK CFI 3ced .cfa: $rsp 176 +
STACK CFI 3e64 .cfa: $rsp 40 +
STACK CFI 3e65 .cfa: $rsp 32 +
STACK CFI 3e66 .cfa: $rsp 24 +
STACK CFI 3e68 .cfa: $rsp 16 +
STACK CFI 3e6a .cfa: $rsp 8 +
STACK CFI 3e70 .cfa: $rsp 176 +
STACK CFI INIT 3fd0 a4 .cfa: $rsp 8 + .ra: .cfa -8 + ^
STACK CFI 3fd1 $rbp: .cfa -16 + ^ .cfa: $rsp 16 +
STACK CFI 3fd2 $rbx: .cfa -24 + ^ .cfa: $rsp 24 +
STACK CFI 3fd6 .cfa: $rsp 32 +
STACK CFI 404f .cfa: $rsp 24 +
STACK CFI 4053 .cfa: $rsp 16 +
STACK CFI 4054 .cfa: $rsp 8 +
STACK CFI 4055 .cfa: $rsp 32 +
STACK CFI INIT 4080 33 .cfa: $rsp 8 + .ra: .cfa -8 + ^
STACK CFI 408c $rbx: .cfa -16 + ^ .cfa: $rsp 16 +
STACK CFI 40b2 .cfa: $rsp 8 +
STACK CFI INIT 5bb0 3f7 .cfa: $rsp 8 + .ra: .cfa -8 + ^
STACK CFI 5bbb $r15: .cfa -16 + ^ .cfa: $rsp 16 +
STACK CFI 5bbd $r14: .cfa -24 + ^ .cfa: $rsp 24 +
STACK CFI 5bc2 $r13: .cfa -32 + ^ .cfa: $rsp 32 +
STACK CFI 5bc4 $r12: .cfa -40 + ^ .cfa: $rsp 40 +
STACK CFI 5bc8 $rbp: .cfa -48 + ^ .cfa: $rsp 48 +
STACK CFI 5bc9 $rbx: .cfa -56 + ^ .cfa: $rsp 56 +
STACK CFI 5bd9 .cfa: $rsp 96 +
STACK CFI 5c4c .cfa: $rsp 56 +
STACK CFI 5c4d $rbx: $rbx .cfa: $rsp 48 +
STACK CFI 5c4e $rbp: $rbp .cfa: $rsp 40 +
STACK CFI 5c50 $r12: $r12 .cfa: $rsp 32 +
STACK CFI 5c52 $r13: $r13 .cfa: $rsp 24 +
STACK CFI 5c54 $r14: $r14 .cfa: $rsp 16 +
STACK CFI 5c56 $r15: $r15 .cfa: $rsp 8 +
STACK CFI 5c60 $r12: .cfa -40 + ^ $r13: .cfa -32 + ^ $r14: .cfa -24 + ^ $r15: .cfa -16 + ^ $rbp: .cfa -48 + ^ $rbx: .cfa -56 + ^ .cfa: $rsp 96 +
STACK CFI 5cd0 .cfa: $rsp 56 +
STACK CFI 5cd7 $rbx: $rbx .cfa: $rsp 48 +
STACK CFI 5cd8 $rbp: $rbp .cfa: $rsp 40 +
STACK CFI 5cda $r12: $r12 .cfa: $rsp 32 +
STACK CFI 5cdc $r13: $r13 .cfa: $rsp 24 +
STACK CFI 5cde $r14: $r14 .cfa: $rsp 16 +
STACK CFI 5ce0 $r15: $r15 .cfa: $rsp 8 +
STACK CFI 5ce8 $r12: .cfa -40 + ^ $r13: .cfa -32 + ^ $r14: .cfa -24 + ^ $r15: .cfa -16 + ^ $rbp: .cfa -48 + ^ $rbx: .cfa -56 + ^ .cfa: $rsp 96 +
STACK CFI 5dcd .cfa: $rsp 56 +
STACK CFI 5dce $rbx: $rbx .cfa: $rsp 48 +
STACK CFI 5dcf $rbp: $rbp .cfa: $rsp 40 +
STACK CFI 5dd1 $r12: $r12 .cfa: $rsp 32 +
STACK CFI 5dd3 $r13: $r13 .cfa: $rsp 24 +
STACK CFI 5dd5 $r14: $r14 .cfa: $rsp 16 +
STACK CFI 5dd7 $r15: $r15 .cfa: $rsp 8 +
STACK CFI 5de0 $r12: .cfa -40 + ^ $r13: .cfa -32 + ^ $r14: .cfa -24 + ^ $r15: .cfa -16 + ^ $rbp: .cfa -48 + ^ $rbx: .cfa -56 + ^ .cfa: $rsp 96 +
STACK CFI INIT 40c0 1aeb .cfa: $rsp 8 + .ra: .cfa -8 + ^
STACK CFI 40c1 $rbp: .cfa -16 + ^ .cfa: $rsp 16 +
STACK CFI 40c4 .cfa: $rbp 16 +
STACK CFI 40d4 $r12: .cfa -48 + ^ $r13: .cfa -40 + ^ $r14: .cfa -32 + ^ $r15: .cfa -24 + ^ $rbx: .cfa -56 + ^
STACK CFI 4148 .cfa: $rsp 8 +
STACK CFI 4149 .cfa: $rbp 16 +
STACK CFI INIT 5fb0 6 .cfa: $rsp 8 + .ra: .cfa -8 + ^
STACK CFI INIT 7b80 150 .cfa: $rsp 8 + .ra: .cfa -8 + ^
STACK CFI 7b8b $r15: .cfa -16 + ^ .cfa: $rsp 16 +
STACK CFI 7b8d $r14: .cfa -24 + ^ .cfa: $rsp 24 +
STACK CFI 7b8f $r13: .cfa -32 + ^ .cfa: $rsp 32 +
STACK CFI 7b91 $r12: .cfa -40 + ^ .cfa: $rsp 40 +
STACK CFI 7b92 $rbp: .cfa -48 + ^ .cfa: $rsp 48 +
STACK CFI 7b93 $rbx: .cfa -56 + ^ .cfa: $rsp 56 +
STACK CFI 7b9a .cfa: $rsp 64 +
STACK CFI 7bd0 .cfa: $rsp 56 +
STACK CFI 7bd1 $rbx: $rbx .cfa: $rsp 48 +
STACK CFI 7bd2 $rbp: $rbp .cfa: $rsp 40 +
STACK CFI 7bd4 $r12: $r12 .cfa: $rsp 32 +
STACK CFI 7bd6 $r13: $r13 .cfa: $rsp 24 +
STACK CFI 7bd8 $r14: $r14 .cfa: $rsp 16 +
STACK CFI 7bda $r15: $r15 .cfa: $rsp 8 +
STACK CFI 7be0 $r12: .cfa -40 + ^ $r13: .cfa -32 + ^ $r14: .cfa -24 + ^ $r15: .cfa -16 + ^ $rbp: .cfa -48 + ^ $rbx: .cfa -56 + ^ .cfa: $rsp 64 +
STACK CFI 7c8f .cfa: $rsp 56 +
STACK CFI 7c94 $rbx: $rbx .cfa: $rsp 48 +
STACK CFI 7c95 $rbp: $rbp .cfa: $rsp 40 +
STACK CFI 7c97 $r12: $r12 .cfa: $rsp 32 +
STACK CFI 7c99 $r13: $r13 .cfa: $rsp 24 +
STACK CFI 7c9b $r14: $r14 .cfa: $rsp 16 +
STACK CFI 7c9d $r15: $r15 .cfa: $rsp 8 +
STACK CFI 7ca0 $r12: .cfa -40 + ^ $r13: .cfa -32 + ^ $r14: .cfa -24 + ^ $r15: .cfa -16 + ^ $rbp: .cfa -48 + ^ $rbx: .cfa -56 + ^ .cfa: $rsp 64 +
STACK CFI 7cb4 .cfa: $rsp 56 +
STACK CFI 7cb5 $rbx: $rbx .cfa: $rsp 48 +
STACK CFI 7cb6 $rbp: $rbp .cfa: $rsp 40 +
STACK CFI 7cb8 $r12: $r12 .cfa: $rsp 32 +
STACK CFI 7cba $r13: $r13 .cfa: $rsp 24 +
STACK CFI 7cbc $r14: $r14 .cfa: $rsp 16 +
STACK CFI 7cbe $r15: $r15 .cfa: $rsp 8 +
STACK CFI 7cc8 $r12: .cfa -40 + ^ $r13: .cfa -32 + ^ $r14: .cfa -24 + ^ $r15: .cfa -16 + ^ $rbp: .cfa -48 + ^ $rbx: .cfa -56 + ^ .cfa: $rsp 64 +
STACK CFI INIT 5fc0 846 .cfa: $rsp 8 + .ra: .cfa -8 + ^
STACK CFI 5fc2 $r15: .cfa -16 + ^ .cfa: $rsp 16 +
STACK CFI 5fc4 $r14: .cfa -24 + ^ .cfa: $rsp 24 +
STACK CFI 5fcd $r13: .cfa -32 + ^ .cfa: $rsp 32 +
STACK CFI 5fcf $r12: .cfa -40 + ^ .cfa: $rsp 40 +
STACK CFI 5fd6 $rbp: .cfa -48 + ^ .cfa: $rsp 48 +
STACK CFI 5fd7 $rbx: .cfa -56 + ^ .cfa: $rsp 56 +
STACK CFI 5fe2 .cfa: $rsp 80 +
STACK CFI 622d .cfa: $rsp 56 +
STACK CFI 622e .cfa: $rsp 48 +
STACK CFI 622f .cfa: $rsp 40 +
STACK CFI 6231 .cfa: $rsp 32 +
STACK CFI 6233 .cfa: $rsp 24 +
STACK CFI 6235 .cfa: $rsp 16 +
STACK CFI 6237 .cfa: $rsp 8 +
STACK CFI 6240 .cfa: $rsp 80 +
STACK CFI INIT 6810 67 .cfa: $rsp 8 + .ra: .cfa -8 + ^
STACK CFI 6812 $r13: .cfa -16 + ^ .cfa: $rsp 16 +
STACK CFI 6814 $r12: .cfa -24 + ^ .cfa: $rsp 24 +
STACK CFI 6818 $rbp: .cfa -32 + ^ .cfa: $rsp 32 +
STACK CFI 6819 $rbx: .cfa -40 + ^ .cfa: $rsp 40 +
STACK CFI 6822 .cfa: $rsp 48 +
STACK CFI 6870 .cfa: $rsp 40 +
STACK CFI 6871 .cfa: $rsp 32 +
STACK CFI 6872 .cfa: $rsp 24 +
STACK CFI 6874 .cfa: $rsp 16 +
STACK CFI 6876 .cfa: $rsp 8 +
STACK CFI INIT 6880 12 .cfa: $rsp 8 + .ra: .cfa -8 + ^
STACK CFI 6881 $rbx: .cfa -16 + ^ .cfa: $rsp 16 +
STACK CFI 688d .cfa: $rsp 8 +
STACK CFI INIT 68a0 4a .cfa: $rsp 8 + .ra: .cfa -8 + ^
STACK CFI 68a1 $rbp: .cfa -16 + ^ .cfa: $rsp 16 +
STACK CFI 68a2 $rbx: .cfa -24 + ^ .cfa: $rsp 24 +
STACK CFI 68b1 .cfa: $rsp 32 +
STACK CFI 68e5 .cfa: $rsp 24 +
STACK CFI 68e8 .cfa: $rsp 16 +
STACK CFI 68e9 .cfa: $rsp 8 +
STACK CFI INIT 68f0 172 .cfa: $rsp 8 + .ra: .cfa -8 + ^
STACK CFI 68f2 $r14: .cfa -16 + ^ .cfa: $rsp 16 +
STACK CFI 68f4 $r13: .cfa -24 + ^ .cfa: $rsp 24 +
STACK CFI 68f9 $r12: .cfa -32 + ^ .cfa: $rsp 32 +
STACK CFI 68fa $rbp: .cfa -40 + ^ .cfa: $rsp 40 +
STACK CFI 68ff $rbx: .cfa -48 + ^ .cfa: $rsp 48 +
STACK CFI 691b .cfa: $rsp 4208 +
STACK CFI 692d .cfa: $rsp 48 +
STACK CFI 6930 .cfa: $rsp 40 +
STACK CFI 6931 .cfa: $rsp 32 +
STACK CFI 6933 .cfa: $rsp 24 +
STACK CFI 6935 .cfa: $rsp 16 +
STACK CFI 6937 .cfa: $rsp 8 +
STACK CFI 6940 .cfa: $rsp 4208 +
STACK CFI INIT 6a70 17a .cfa: $rsp 8 + .ra: .cfa -8 + ^
STACK CFI 6a72 $r14: .cfa -16 + ^ .cfa: $rsp 16 +
STACK CFI 6a74 $r13: .cfa -24 + ^ .cfa: $rsp 24 +
STACK CFI 6a7d $r12: .cfa -32 + ^ .cfa: $rsp 32 +
STACK CFI 6a7e $rbp: .cfa -40 + ^ .cfa: $rsp 40 +
STACK CFI 6a82 $rbx: .cfa -48 + ^ .cfa: $rsp 48 +
STACK CFI 6a8c .cfa: $rsp 4976 +
STACK CFI 6aad .cfa: $rsp 48 +
STACK CFI 6ab0 .cfa: $rsp 40 +
STACK CFI 6ab1 .cfa: $rsp 32 +
STACK CFI 6ab3 .cfa: $rsp 24 +
STACK CFI 6ab5 .cfa: $rsp 16 +
STACK CFI 6ab7 .cfa: $rsp 8 +
STACK CFI 6ac0 .cfa: $rsp 4976 +
STACK CFI INIT 6bf0 e6 .cfa: $rsp 8 + .ra: .cfa -8 + ^
STACK CFI 6bf2 $r15: .cfa -16 + ^ .cfa: $rsp 16 +
STACK CFI 6bf4 $r14: .cfa -24 + ^ .cfa: $rsp 24 +
STACK CFI 6bf9 $r13: .cfa -32 + ^ .cfa: $rsp 32 +
STACK CFI 6bfb $r12: .cfa -40 + ^ .cfa: $rsp 40 +
STACK CFI 6bff $rbp: .cfa -48 + ^ .cfa: $rsp 48 +
STACK CFI 6c00 $rbx: .cfa -56 + ^ .cfa: $rsp 56 +
STACK CFI 6c11 .cfa: $rsp 64 +
STACK CFI 6c4b .cfa: $rsp 56 +
STACK CFI 6c52 .cfa: $rsp 48 +
STACK CFI 6c53 .cfa: $rsp 40 +
STACK CFI 6c55 .cfa: $rsp 32 +
STACK CFI 6c57 .cfa: $rsp 24 +
STACK CFI 6c59 .cfa: $rsp 16 +
STACK CFI 6c5b .cfa: $rsp 8 +
STACK CFI 6c60 .cfa: $rsp 64 +
STACK CFI 6c96 .cfa: $rsp 56 +
STACK CFI 6c97 .cfa: $rsp 48 +
STACK CFI 6c98 .cfa: $rsp 40 +
STACK CFI 6c9a .cfa: $rsp 32 +
STACK CFI 6c9c .cfa: $rsp 24 +
STACK CFI 6c9e .cfa: $rsp 16 +
STACK CFI 6ca0 .cfa: $rsp 8 +
STACK CFI 6ca8 .cfa: $rsp 64 +
STACK CFI 6cbe .cfa: $rsp 56 +
STACK CFI 6cc8 .cfa: $rsp 48 +
STACK CFI 6cc9 .cfa: $rsp 40 +
STACK CFI 6ccb .cfa: $rsp 32 +
STACK CFI 6ccd .cfa: $rsp 24 +
STACK CFI 6ccf .cfa: $rsp 16 +
STACK CFI 6cd1 .cfa: $rsp 8 +
STACK CFI INIT 6ce0 f0 .cfa: $rsp 8 + .ra: .cfa -8 + ^
STACK CFI 6ce2 $r13: .cfa -16 + ^ .cfa: $rsp 16 +
STACK CFI 6ce4 $r12: .cfa -24 + ^ .cfa: $rsp 24 +
STACK CFI 6ce8 $rbp: .cfa -32 + ^ .cfa: $rsp 32 +
STACK CFI 6ce9 $rbx: .cfa -40 + ^ .cfa: $rsp 40 +
STACK CFI 6cf7 .cfa: $rsp 320 +
STACK CFI 6d93 .cfa: $rsp 40 +
STACK CFI 6d97 .cfa: $rsp 32 +
STACK CFI 6d98 .cfa: $rsp 24 +
STACK CFI 6d9a .cfa: $rsp 16 +
STACK CFI 6d9c .cfa: $rsp 8 +
STACK CFI 6da0 .cfa: $rsp 320 +
STACK CFI INIT 6dd0 32 .cfa: $rsp 8 + .ra: .cfa -8 + ^
STACK CFI 6dd1 $rbx: .cfa -16 + ^ .cfa: $rsp 16 +
STACK CFI 6de0 .cfa: $rsp 8 +
STACK CFI 6de8 .cfa: $rsp 16 +
STACK CFI 6dfc .cfa: $rsp 8 +
STACK CFI INIT 6e10 4b .cfa: $rsp 8 + .ra: .cfa -8 + ^
STACK CFI INIT 6e60 7d .cfa: $rsp 8 + .ra: .cfa -8 + ^
STACK CFI 6e62 $r13: .cfa -16 + ^ .cfa: $rsp 16 +
STACK CFI 6e64 $r12: .cfa -24 + ^ .cfa: $rsp 24 +
STACK CFI 6e68 $rbp: .cfa -32 + ^ .cfa: $rsp 32 +
STACK CFI 6e69 $rbx: .cfa -40 + ^ .cfa: $rsp 40 +
STACK CFI 6e76 .cfa: $rsp 48 +
STACK CFI 6ec0 .cfa: $rsp 40 +
STACK CFI 6ec1 .cfa: $rsp 32 +
STACK CFI 6ec2 .cfa: $rsp 24 +
STACK CFI 6ec4 .cfa: $rsp 16 +
STACK CFI 6ec6 .cfa: $rsp 8 +
STACK CFI 6ed0 .cfa: $rsp 48 +
STACK CFI 6ed4 .cfa: $rsp 40 +
STACK CFI 6ed7 .cfa: $rsp 32 +
STACK CFI 6ed8 .cfa: $rsp 24 +
STACK CFI 6eda .cfa: $rsp 16 +
STACK CFI 6edc .cfa: $rsp 8 +
STACK CFI INIT 6ee0 53 .cfa: $rsp 8 + .ra: .cfa -8 + ^
STACK CFI 6ee1 $rbp: .cfa -16 + ^ .cfa: $rsp 16 +
STACK CFI 6ee2 $rbx: .cfa -24 + ^ .cfa: $rsp 24 +
STACK CFI 6eef .cfa: $rsp 32 +
STACK CFI 6efe .cfa: $rsp 24 +
STACK CFI 6f01 .cfa: $rsp 16 +
STACK CFI 6f02 .cfa: $rsp 8 +
STACK CFI 6f08 .cfa: $rsp 32 +
STACK CFI 6f26 .cfa: $rsp 24 +
STACK CFI 6f2d .cfa: $rsp 16 +
STACK CFI 6f2e .cfa: $rsp 8 +
STACK CFI INIT 6f40 316 .cfa: $rsp 8 + .ra: .cfa -8 + ^
STACK CFI 6f42 $r15: .cfa -16 + ^ .cfa: $rsp 16 +
STACK CFI 6f44 $r14: .cfa -24 + ^ .cfa: $rsp 24 +
STACK CFI 6f49 $r13: .cfa -32 + ^ .cfa: $rsp 32 +
STACK CFI 6f4b $r12: .cfa -40 + ^ .cfa: $rsp 40 +
STACK CFI 6f4f $rbp: .cfa -48 + ^ .cfa: $rsp 48 +
STACK CFI 6f50 $rbx: .cfa -56 + ^ .cfa: $rsp 56 +
STACK CFI 6f5f .cfa: $rsp 4192 +
STACK CFI 6fa7 .cfa: $rsp 56 +
STACK CFI 6faa .cfa: $rsp 48 +
STACK CFI 6fab .cfa: $rsp 40 +
STACK CFI 6fad .cfa: $rsp 32 +
STACK CFI 6faf .cfa: $rsp 24 +
STACK CFI 6fb1 .cfa: $rsp 16 +
STACK CFI 6fb3 .cfa: $rsp 8 +
STACK CFI 6fb8 .cfa: $rsp 4192 +
STACK CFI INIT 7cd0 299 .cfa: $rsp 8 + .ra: .cfa -8 + ^
STACK CFI 7d22 $r15: .cfa -16 + ^ .cfa: $rsp 16 +
STACK CFI 7d24 $r14: .cfa -24 + ^ .cfa: $rsp 24 +
STACK CFI 7d29 $r13: .cfa -32 + ^ .cfa: $rsp 32 +
STACK CFI 7d2b $r12: .cfa -40 + ^ .cfa: $rsp 40 +
STACK CFI 7d36 $rbp: .cfa -48 + ^ .cfa: $rsp 48 +
STACK CFI 7d37 $rbx: .cfa -56 + ^ .cfa: $rsp 56 +
STACK CFI 7d44 .cfa: $rsp 80 +
STACK CFI 7e0a .cfa: $rsp 56 +
STACK CFI 7e0b $rbx: $rbx .cfa: $rsp 48 +
STACK CFI 7e0c $rbp: $rbp .cfa: $rsp 40 +
STACK CFI 7e0e $r12: $r12 .cfa: $rsp 32 +
STACK CFI 7e10 $r13: $r13 .cfa: $rsp 24 +
STACK CFI 7e12 $r14: $r14 .cfa: $rsp 16 +
STACK CFI 7e14 $r15: $r15 .cfa: $rsp 8 +
STACK CFI 7e16 $r12: .cfa -40 + ^ $r13: .cfa -32 + ^ $r14: .cfa -24 + ^ $r15: .cfa -16 + ^ $rbp: .cfa -48 + ^ $rbx: .cfa -56 + ^ .cfa: $rsp 80 +
STACK CFI INIT 7260 918 .cfa: $rsp 8 + .ra: .cfa -8 + ^
STACK CFI 7262 $r15: .cfa -16 + ^ .cfa: $rsp 16 +
STACK CFI 7264 $r14: .cfa -24 + ^ .cfa: $rsp 24 +
STACK CFI 726d $r13: .cfa -32 + ^ .cfa: $rsp 32 +
STACK CFI 726f $r12: .cfa -40 + ^ .cfa: $rsp 40 +
STACK CFI 7273 $rbp: .cfa -48 + ^ .cfa: $rsp 48 +
STACK CFI 7274 $rbx: .cfa -56 + ^ .cfa: $rsp 56 +
STACK CFI 727b .cfa: $rsp 432 +
STACK CFI 7400 .cfa: $rsp 56 +
STACK CFI 7401 .cfa: $rsp 48 +
STACK CFI 7402 .cfa: $rsp 40 +
STACK CFI 7404 .cfa: $rsp 32 +
STACK CFI 7406 .cfa: $rsp 24 +
STACK CFI 7408 .cfa: $rsp 16 +
STACK CFI 740a .cfa: $rsp 8 +
STACK CFI 740b .cfa: $rsp 432 +
STACK CFI INIT 7f70 3 .cfa: $rsp 8 + .ra: .cfa -8 + ^
STACK CFI INIT 7f80 14a .cfa: $rsp 8 + .ra: .cfa -8 + ^
STACK CFI 7f82 $r15: .cfa -16 + ^ .cfa: $rsp 16 +
STACK CFI 7f84 $r14: .cfa -24 + ^ .cfa: $rsp 24 +
STACK CFI 7f86 $r13: .cfa -32 + ^ .cfa: $rsp 32 +
STACK CFI 7f88 $r12: .cfa -40 + ^ .cfa: $rsp 40 +
STACK CFI 7f89 $rbp: .cfa -48 + ^ .cfa: $rsp 48 +
STACK CFI 7f8a $rbx: .cfa -56 + ^ .cfa: $rsp 56 +
STACK CFI 7f8e .cfa: $rsp 112 +
STACK CFI 8043 .cfa: $rsp 56 +
STACK CFI 8049 .cfa: $rsp 48 +
STACK CFI 804a .cfa: $rsp 40 +
STACK CFI 804c .cfa: $rsp 32 +
STACK CFI 804e .cfa: $rsp 24 +
STACK CFI 8050 .cfa: $rsp 16 +
STACK CFI 8052 .cfa: $rsp 8 +
STACK CFI 8058 .cfa: $rsp 112 +
STACK CFI INIT 8fa0 13 .cfa: $rsp 8 + .ra: .cfa -8 + ^
STACK CFI INIT 8fc0 20 .cfa: $rsp 8 + .ra: .cfa -8 + ^
STACK CFI 8fc8 $rbx: .cfa -16 + ^ .cfa: $rsp 16 +
STACK CFI 8fdb .cfa: $rsp 8 +
STACK CFI INIT 80d0 bb .cfa: $rsp 8 + .ra: .cfa -8 + ^
STACK CFI 80e8 $r15: .cfa -16 + ^ .cfa: $rsp 16 +
STACK CFI 80ea $r14: .cfa -24 + ^ .cfa: $rsp 24 +
STACK CFI 80ef $r13: .cfa -32 + ^ .cfa: $rsp 32 +
STACK CFI 80f1 $r12: .cfa -40 + ^ .cfa: $rsp 40 +
STACK CFI 80f5 $rbp: .cfa -48 + ^ .cfa: $rsp 48 +
STACK CFI 80f6 $rbx: .cfa -56 + ^ .cfa: $rsp 56 +
STACK CFI 8100 .cfa: $rsp 64 +
STACK CFI 8113 .cfa: $rsp 56 +
STACK CFI 8114 $rbx: $rbx .cfa: $rsp 48 +
STACK CFI 8115 $rbp: $rbp .cfa: $rsp 40 +
STACK CFI 8117 $r12: $r12 .cfa: $rsp 32 +
STACK CFI 8119 $r13: $r13 .cfa: $rsp 24 +
STACK CFI 811b $r14: $r14 .cfa: $rsp 16 +
STACK CFI 811d $r15: $r15 .cfa: $rsp 8 +
STACK CFI 8128 $r12: .cfa -40 + ^ $r13: .cfa -32 + ^ $r14: .cfa -24 + ^ $r15: .cfa -16 + ^ $rbp: .cfa -48 + ^ $rbx: .cfa -56 + ^ .cfa: $rsp 64 +
STACK CFI INIT 8190 bc .cfa: $rsp 8 + .ra: .cfa -8 + ^
STACK CFI 81a1 $r15: .cfa -16 + ^ .cfa: $rsp 16 +
STACK CFI 81a3 $r14: .cfa -24 + ^ .cfa: $rsp 24 +
STACK CFI 81ab $r13: .cfa -32 + ^ .cfa: $rsp 32 +
STACK CFI 81ad $r12: .cfa -40 + ^ .cfa: $rsp 40 +
STACK CFI 81b1 $rbp: .cfa -48 + ^ .cfa: $rsp 48 +
STACK CFI 81b2 $rbx: .cfa -56 + ^ .cfa: $rsp 56 +
STACK CFI 81b6 .cfa: $rsp 64 +
STACK CFI 823d .cfa: $rsp 56 +
STACK CFI 8241 $rbx: $rbx .cfa: $rsp 48 +
STACK CFI 8242 $rbp: $rbp .cfa: $rsp 40 +
STACK CFI 8244 $r12: $r12 .cfa: $rsp 32 +
STACK CFI 8246 $r13: $r13 .cfa: $rsp 24 +
STACK CFI 8248 $r14: $r14 .cfa: $rsp 16 +
STACK CFI 824a $r15: $r15 .cfa: $rsp 8 +
STACK CFI INIT 8250 5dc .cfa: $rsp 8 + .ra: .cfa -8 + ^
STACK CFI 8252 $r15: .cfa -16 + ^ .cfa: $rsp 16 +
STACK CFI 8254 $r14: .cfa -24 + ^ .cfa: $rsp 24 +
STACK CFI 825d $r13: .cfa -32 + ^ .cfa: $rsp 32 +
STACK CFI 825f $r12: .cfa -40 + ^ .cfa: $rsp 40 +
STACK CFI 8263 $rbp: .cfa -48 + ^ .cfa: $rsp 48 +
STACK CFI 8264 $rbx: .cfa -56 + ^ .cfa: $rsp 56 +
STACK CFI 826b .cfa: $rsp 400 +
STACK CFI 8395 .cfa: $rsp 56 +
STACK CFI 8399 .cfa: $rsp 48 +
STACK CFI 839a .cfa: $rsp 40 +
STACK CFI 839c .cfa: $rsp 32 +
STACK CFI 839e .cfa: $rsp 24 +
STACK CFI 83a0 .cfa: $rsp 16 +
STACK CFI 83a2 .cfa: $rsp 8 +
STACK CFI 83a8 .cfa: $rsp 400 +
STACK CFI INIT 8830 4f9 .cfa: $rsp 8 + .ra: .cfa -8 + ^
STACK CFI 8832 $r15: .cfa -16 + ^ .cfa: $rsp 16 +
STACK CFI 8834 $r14: .cfa -24 + ^ .cfa: $rsp 24 +
STACK CFI 8836 $r13: .cfa -32 + ^ .cfa: $rsp 32 +
STACK CFI 8838 $r12: .cfa -40 + ^ .cfa: $rsp 40 +
STACK CFI 8839 $rbp: .cfa -48 + ^ .cfa: $rsp 48 +
STACK CFI 883a $rbx: .cfa -56 + ^ .cfa: $rsp 56 +
STACK CFI 8841 .cfa: $rsp 368 +
STACK CFI 8a88 .cfa: $rsp 56 +
STACK CFI 8a8c .cfa: $rsp 48 +
STACK CFI 8a8d .cfa: $rsp 40 +
STACK CFI 8a8f .cfa: $rsp 32 +
STACK CFI 8a91 .cfa: $rsp 24 +
STACK CFI 8a93 .cfa: $rsp 16 +
STACK CFI 8a95 .cfa: $rsp 8 +
STACK CFI 8a96 .cfa: $rsp 368 +
STACK CFI INIT 8d30 27 .cfa: $rsp 8 + .ra: .cfa -8 + ^
STACK CFI 8d31 $rbx: .cfa -16 + ^ .cfa: $rsp 16 +
STACK CFI 8d56 .cfa: $rsp 8 +
STACK CFI INIT 8fe0 299 .cfa: $rsp 8 + .ra: .cfa -8 + ^
STACK CFI 9032 $r15: .cfa -16 + ^ .cfa: $rsp 16 +
STACK CFI 9034 $r14: .cfa -24 + ^ .cfa: $rsp 24 +
STACK CFI 9039 $r13: .cfa -32 + ^ .cfa: $rsp 32 +
STACK CFI 903b $r12: .cfa -40 + ^ .cfa: $rsp 40 +
STACK CFI 9046 $rbp: .cfa -48 + ^ .cfa: $rsp 48 +
STACK CFI 9047 $rbx: .cfa -56 + ^ .cfa: $rsp 56 +
STACK CFI 9054 .cfa: $rsp 80 +
STACK CFI 9119 .cfa: $rsp 56 +
STACK CFI 911a $rbx: $rbx .cfa: $rsp 48 +
STACK CFI 911b $rbp: $rbp .cfa: $rsp 40 +
STACK CFI 911d $r12: $r12 .cfa: $rsp 32 +
STACK CFI 911f $r13: $r13 .cfa: $rsp 24 +
STACK CFI 9121 $r14: $r14 .cfa: $rsp 16 +
STACK CFI 9123 $r15: $r15 .cfa: $rsp 8 +
STACK CFI 9125 $r12: .cfa -40 + ^ $r13: .cfa -32 + ^ $r14: .cfa -24 + ^ $r15: .cfa -16 + ^ $rbp: .cfa -48 + ^ $rbx: .cfa -56 + ^ .cfa: $rsp 80 +
STACK CFI INIT 8d60 233 .cfa: $rsp 8 + .ra: .cfa -8 + ^
STACK CFI 8d71 $r15: .cfa -16 + ^ .cfa: $rsp 16 +
STACK CFI 8d73 $r14: .cfa -24 + ^ .cfa: $rsp 24 +
STACK CFI 8d78 $r13: .cfa -32 + ^ .cfa: $rsp 32 +
STACK CFI 8d7a $r12: .cfa -40 + ^ .cfa: $rsp 40 +
STACK CFI 8d7b $rbp: .cfa -48 + ^ .cfa: $rsp 48 +
STACK CFI 8d7c $rbx: .cfa -56 + ^ .cfa: $rsp 56 +
STACK CFI 8d83 .cfa: $rsp 304 +
STACK CFI 8ec1 .cfa: $rsp 56 +
STACK CFI 8ec2 $rbx: $rbx .cfa: $rsp 48 +
STACK CFI 8ec3 $rbp: $rbp .cfa: $rsp 40 +
STACK CFI 8ec5 $r12: $r12 .cfa: $rsp 32 +
STACK CFI 8ec7 $r13: $r13 .cfa: $rsp 24 +
STACK CFI 8ec9 $r14: $r14 .cfa: $rsp 16 +
STACK CFI 8ecb $r15: $r15 .cfa: $rsp 8 +
STACK CFI 8ed0 $r12: .cfa -40 + ^ $r13: .cfa -32 + ^ $r14: .cfa -24 + ^ $r15: .cfa -16 + ^ $rbp: .cfa -48 + ^ $rbx: .cfa -56 + ^ .cfa: $rsp 304 +
STACK CFI INIT 19f0 4a .cfa: $rsp 8 + .ra: .cfa -8 + ^
STACK CFI 19f2 $r13: .cfa -16 + ^ .cfa: $rsp 16 +
STACK CFI 19f4 $r12: .cfa -24 + ^ .cfa: $rsp 24 +
STACK CFI 19f8 $rbp: .cfa -32 + ^ .cfa: $rsp 32 +
STACK CFI 19f9 $rbx: .cfa -40 + ^ .cfa: $rsp 40 +
STACK CFI 19fd .cfa: $rsp 48 +
STACK CFI 1a33 .cfa: $rsp 40 +
STACK CFI 1a34 .cfa: $rsp 32 +
STACK CFI 1a35 .cfa: $rsp 24 +
STACK CFI 1a37 .cfa: $rsp 16 +
STACK CFI 1a39 .cfa: $rsp 8 +
STACK CFI INIT 1a3a 20 .cfa: $rsp 8 + .ra: .cfa -8 + ^
STACK CFI 1a42 .cfa: $rsp 16 +
STACK CFI INIT 1a5a 20 .cfa: $rsp 8 + .ra: .cfa -8 + ^
STACK CFI 1a62 .cfa: $rsp 16 +
STACK CFI INIT 1a7a 1d .cfa: $rsp 8 + .ra: .cfa -8 + ^
STACK CFI 1a80 .cfa: $rsp 16 +
STACK CFI 1a85 .cfa: $rsp 8 +
STACK CFI INIT 1a98 20 .cfa: $rsp 8 + .ra: .cfa -8 + ^
STACK CFI 1aa0 .cfa: $rsp 16 +
STACK CFI INIT 1ab8 20 .cfa: $rsp 8 + .ra: .cfa -8 + ^
STACK CFI 1ac0 .cfa: $rsp 16 +
STACK CFI INIT 1ad8 2c .cfa: $rsp 8 + .ra: .cfa -8 + ^
STACK CFI 1ad9 $rbp: .cfa -16 + ^ .cfa: $rsp 16 +
STACK CFI 1ada $rbx: .cfa -24 + ^ .cfa: $rsp 24 +
STACK CFI 1adf .cfa: $rsp 32 +
STACK CFI 1afa .cfa: $rsp 24 +
STACK CFI 1afe .cfa: $rsp 16 +
STACK CFI 1aff .cfa: $rsp 8 +
STACK CFI INIT 1b04 1c9 .cfa: $rsp 8 + .ra: .cfa -8 + ^
STACK CFI 1b06 $r15: .cfa -16 + ^ .cfa: $rsp 16 +
STACK CFI 1b08 $r14: .cfa -24 + ^ .cfa: $rsp 24 +
STACK CFI 1b0f $r13: .cfa -32 + ^ .cfa: $rsp 32 +
STACK CFI 1b11 $r12: .cfa -40 + ^ .cfa: $rsp 40 +
STACK CFI 1b15 $rbp: .cfa -48 + ^ .cfa: $rsp 48 +
STACK CFI 1b16 $rbx: .cfa -56 + ^ .cfa: $rsp 56 +
STACK CFI 1b1f .cfa: $rsp 112 +
STACK CFI 1cc0 .cfa: $rsp 56 +
STACK CFI 1cc3 .cfa: $rsp 48 +
STACK CFI 1cc4 .cfa: $rsp 40 +
STACK CFI 1cc6 .cfa: $rsp 32 +
STACK CFI 1cc8 .cfa: $rsp 24 +
STACK CFI 1cca .cfa: $rsp 16 +
STACK CFI 1ccc .cfa: $rsp 8 +
STACK CFI INIT 1cce 3c .cfa: $rsp 8 + .ra: .cfa -8 + ^
STACK CFI 1cd0 $r12: .cfa -16 + ^ .cfa: $rsp 16 +
STACK CFI 1cd1 $rbp: .cfa -24 + ^ .cfa: $rsp 24 +
STACK CFI 1cd5 $rbx: .cfa -32 + ^ .cfa: $rsp 32 +
STACK CFI 1cdf .cfa: $rsp 288 +
STACK CFI 1d05 .cfa: $rsp 32 +
STACK CFI 1d06 .cfa: $rsp 24 +
STACK CFI 1d07 .cfa: $rsp 16 +
STACK CFI 1d09 .cfa: $rsp 8 +
STACK CFI INIT cfe0 259 .cfa: $rsp 8 + .ra: .cfa -8 + ^
STACK CFI cfe2 $r15: .cfa -16 + ^ .cfa: $rsp 16 +
STACK CFI cfe4 $r14: .cfa -24 + ^ .cfa: $rsp 24 +
STACK CFI cfea $r13: .cfa -32 + ^ .cfa: $rsp 32 +
STACK CFI cfec $r12: .cfa -40 + ^ .cfa: $rsp 40 +
STACK CFI cff0 $rbp: .cfa -48 + ^ .cfa: $rsp 48 +
STACK CFI cff1 $rbx: .cfa -56 + ^ .cfa: $rsp 56 +
STACK CFI cff8 .cfa: $rsp 64 +
STACK CFI d05d .cfa: $rsp 56 +
STACK CFI d060 .cfa: $rsp 48 +
STACK CFI d061 .cfa: $rsp 40 +
STACK CFI d063 .cfa: $rsp 32 +
STACK CFI d065 .cfa: $rsp 24 +
STACK CFI d067 .cfa: $rsp 16 +
STACK CFI d069 .cfa: $rsp 8 +
STACK CFI d070 .cfa: $rsp 64 +
STACK CFI d143 .cfa: $rsp 56 +
STACK CFI d144 .cfa: $rsp 48 +
STACK CFI d14a .cfa: $rsp 40 +
STACK CFI d14c .cfa: $rsp 32 +
STACK CFI d14e .cfa: $rsp 24 +
STACK CFI d150 .cfa: $rsp 16 +
STACK CFI d152 .cfa: $rsp 8 +
STACK CFI d158 .cfa: $rsp 64 +
STACK CFI d20d .cfa: $rsp 56 +
STACK CFI d210 .cfa: $rsp 48 +
STACK CFI d211 .cfa: $rsp 40 +
STACK CFI d213 .cfa: $rsp 32 +
STACK CFI d215 .cfa: $rsp 24 +
STACK CFI d217 .cfa: $rsp 16 +
STACK CFI d219 .cfa: $rsp 8 +
STACK CFI d21a .cfa: $rsp 64 +
STACK CFI INIT d240 27b .cfa: $rsp 8 + .ra: .cfa -8 + ^
STACK CFI d262 $r15: .cfa -16 + ^ .cfa: $rsp 16 +
STACK CFI d264 $r14: .cfa -24 + ^ .cfa: $rsp 24 +
STACK CFI d266 $r13: .cfa -32 + ^ .cfa: $rsp 32 +
STACK CFI d268 $r12: .cfa -40 + ^ .cfa: $rsp 40 +
STACK CFI d269 $rbp: .cfa -48 + ^ .cfa: $rsp 48 +
STACK CFI d26a $rbx: .cfa -56 + ^ .cfa: $rsp 56 +
STACK CFI d271 .cfa: $rsp 80 +
STACK CFI d2a1 .cfa: $rsp 56 +
STACK CFI d2a2 $rbx: $rbx .cfa: $rsp 48 +
STACK CFI d2a3 $rbp: $rbp .cfa: $rsp 40 +
STACK CFI d2a5 $r12: $r12 .cfa: $rsp 32 +
STACK CFI d2a7 $r13: $r13 .cfa: $rsp 24 +
STACK CFI d2a9 $r14: $r14 .cfa: $rsp 16 +
STACK CFI d2ab $r15: $r15 .cfa: $rsp 8 +
STACK CFI d2b0 $r12: .cfa -40 + ^ $r13: .cfa -32 + ^ $r14: .cfa -24 + ^ $r15: .cfa -16 + ^ $rbp: .cfa -48 + ^ $rbx: .cfa -56 + ^ .cfa: $rsp 80 +
STACK CFI INIT d4c0 261 .cfa: $rsp 8 + .ra: .cfa -8 + ^
STACK CFI d4c2 $r15: .cfa -16 + ^ .cfa: $rsp 16 +
STACK CFI d4c4 $r14: .cfa -24 + ^ .cfa: $rsp 24 +
STACK CFI d4c6 $r13: .cfa -32 + ^ .cfa: $rsp 32 +
STACK CFI d4c8 $r12: .cfa -40 + ^ .cfa: $rsp 40 +
STACK CFI d4cc $rbp: .cfa -48 + ^ .cfa: $rsp 48 +
STACK CFI d4cd $rbx: .cfa -56 + ^ .cfa: $rsp 56 +
STACK CFI d4d4 .cfa: $rsp 80 +
STACK CFI d580 .cfa: $rsp 56 +
STACK CFI d581 .cfa: $rsp 48 +
STACK CFI d582 .cfa: $rsp 40 +
STACK CFI d584 .cfa: $rsp 32 +
STACK CFI d586 .cfa: $rsp 24 +
STACK CFI d588 .cfa: $rsp 16 +
STACK CFI d58a .cfa: $rsp 8 +
STACK CFI d590 .cfa: $rsp 80 +
STACK CFI INIT 9280 dac .cfa: $rsp 8 + .ra: .cfa -8 + ^
STACK CFI 9282 $r15: .cfa -16 + ^ .cfa: $rsp 16 +
STACK CFI 9284 $r14: .cfa -24 + ^ .cfa: $rsp 24 +
STACK CFI 9286 $r13: .cfa -32 + ^ .cfa: $rsp 32 +
STACK CFI 9288 $r12: .cfa -40 + ^ .cfa: $rsp 40 +
STACK CFI 9289 $rbp: .cfa -48 + ^ .cfa: $rsp 48 +
STACK CFI 928a $rbx: .cfa -56 + ^ .cfa: $rsp 56 +
STACK CFI 9291 .cfa: $rsp 2368 +
STACK CFI 9522 .cfa: $rsp 56 +
STACK CFI 9523 .cfa: $rsp 48 +
STACK CFI 9524 .cfa: $rsp 40 +
STACK CFI 9526 .cfa: $rsp 32 +
STACK CFI 9528 .cfa: $rsp 24 +
STACK CFI 952a .cfa: $rsp 16 +
STACK CFI 952c .cfa: $rsp 8 +
STACK CFI 9530 .cfa: $rsp 2368 +
STACK CFI INIT a030 21da .cfa: $rsp 8 + .ra: .cfa -8 + ^
STACK CFI a031 $rbp: .cfa -16 + ^ .cfa: $rsp 16 +
STACK CFI a039 .cfa: $rbp 16 +
STACK CFI a041 $r12: .cfa -48 + ^ $r13: .cfa -40 + ^ $r14: .cfa -32 + ^ $r15: .cfa -24 + ^
STACK CFI a046 $rbx: .cfa -56 + ^
STACK CFI a169 .cfa: $rsp 8 +
STACK CFI a170 .cfa: $rbp 16 +
STACK CFI INIT c210 31e .cfa: $rsp 8 + .ra: .cfa -8 + ^
STACK CFI c212 $r15: .cfa -16 + ^ .cfa: $rsp 16 +
STACK CFI c214 $r14: .cfa -24 + ^ .cfa: $rsp 24 +
STACK CFI c219 $r13: .cfa -32 + ^ .cfa: $rsp 32 +
STACK CFI c21b $r12: .cfa -40 + ^ .cfa: $rsp 40 +
STACK CFI c21f $rbp: .cfa -48 + ^ .cfa: $rsp 48 +
STACK CFI c220 $rbx: .cfa -56 + ^ .cfa: $rsp 56 +
STACK CFI c227 .cfa: $rsp 224 +
STACK CFI c389 .cfa: $rsp 56 +
STACK CFI c38c .cfa: $rsp 48 +
STACK CFI c38d .cfa: $rsp 40 +
STACK CFI c38f .cfa: $rsp 32 +
STACK CFI c391 .cfa: $rsp 24 +
STACK CFI c393 .cfa: $rsp 16 +
STACK CFI c395 .cfa: $rsp 8 +
STACK CFI c3a0 .cfa: $rsp 224 +
STACK CFI INIT c530 449 .cfa: $rsp 8 + .ra: .cfa -8 + ^
STACK CFI c532 $r15: .cfa -16 + ^ .cfa: $rsp 16 +
STACK CFI c534 $r14: .cfa -24 + ^ .cfa: $rsp 24 +
STACK CFI c539 $r13: .cfa -32 + ^ .cfa: $rsp 32 +
STACK CFI c53b $r12: .cfa -40 + ^ .cfa: $rsp 40 +
STACK CFI c53c $rbp: .cfa -48 + ^ .cfa: $rsp 48 +
STACK CFI c53d $rbx: .cfa -56 + ^ .cfa: $rsp 56 +
STACK CFI c546 .cfa: $rsp 512 +
STACK CFI c765 .cfa: $rsp 56 +
STACK CFI c768 .cfa: $rsp 48 +
STACK CFI c769 .cfa: $rsp 40 +
STACK CFI c76b .cfa: $rsp 32 +
STACK CFI c76d .cfa: $rsp 24 +
STACK CFI c76f .cfa: $rsp 16 +
STACK CFI c771 .cfa: $rsp 8 +
STACK CFI c772 .cfa: $rsp 512 +
STACK CFI INIT c980 3dd .cfa: $rsp 8 + .ra: .cfa -8 + ^
STACK CFI c982 $r15: .cfa -16 + ^ .cfa: $rsp 16 +
STACK CFI c984 $r14: .cfa -24 + ^ .cfa: $rsp 24 +
STACK CFI c989 $r13: .cfa -32 + ^ .cfa: $rsp 32 +
STACK CFI c98b $r12: .cfa -40 + ^ .cfa: $rsp 40 +
STACK CFI c98e $rbp: .cfa -48 + ^ .cfa: $rsp 48 +
STACK CFI c98f $rbx: .cfa -56 + ^ .cfa: $rsp 56 +
STACK CFI c99f .cfa: $rsp 464 +
STACK CFI c9ea .cfa: $rsp 56 +
STACK CFI c9ee .cfa: $rsp 48 +
STACK CFI c9ef .cfa: $rsp 40 +
STACK CFI c9f1 .cfa: $rsp 32 +
STACK CFI c9f3 .cfa: $rsp 24 +
STACK CFI c9f5 .cfa: $rsp 16 +
STACK CFI c9f7 .cfa: $rsp 8 +
STACK CFI ca00 .cfa: $rsp 464 +
STACK CFI INIT cd60 d5 .cfa: $rsp 8 + .ra: .cfa -8 + ^
STACK CFI cd61 $rbp: .cfa -16 + ^ .cfa: $rsp 16 +
STACK CFI cd78 .cfa: $rbp 16 +
STACK CFI cd83 $r12: .cfa -40 + ^ $r13: .cfa -32 + ^ $r14: .cfa -24 + ^ $rbx: .cfa -48 + ^
STACK CFI cdf7 .cfa: $rsp 8 +
STACK CFI cdf8 .cfa: $rbp 16 +
STACK CFI INIT ce40 d5 .cfa: $rsp 8 + .ra: .cfa -8 + ^
STACK CFI ce41 $rbp: .cfa -16 + ^ .cfa: $rsp 16 +
STACK CFI ce55 .cfa: $rbp 16 +
STACK CFI ce60 $r12: .cfa -40 + ^ $r13: .cfa -32 + ^ $r14: .cfa -24 + ^ $rbx: .cfa -48 + ^
STACK CFI ced7 .cfa: $rsp 8 +
STACK CFI ced8 .cfa: $rbp 16 +
STACK CFI INIT cf20 26 .cfa: $rsp 8 + .ra: .cfa -8 + ^
STACK CFI cf24 .cfa: $rsp 16 +
STACK CFI cf26 .cfa: $rsp 24 +
STACK CFI cf28 .cfa: $rsp 32 +
STACK CFI cf45 .cfa: $rsp 8 +
STACK CFI INIT cf50 25 .cfa: $rsp 8 + .ra: .cfa -8 + ^
STACK CFI cf54 .cfa: $rsp 16 +
STACK CFI cf56 .cfa: $rsp 24 +
STACK CFI cf58 .cfa: $rsp 32 +
STACK CFI cf74 .cfa: $rsp 8 +
STACK CFI INIT cf80 24 .cfa: $rsp 8 + .ra: .cfa -8 + ^
STACK CFI cf84 .cfa: $rsp 16 +
STACK CFI cf88 .cfa: $rsp 24 +
STACK CFI cf8a .cfa: $rsp 32 +
STACK CFI cfa3 .cfa: $rsp 8 +
STACK CFI INIT cfb0 23 .cfa: $rsp 8 + .ra: .cfa -8 + ^
STACK CFI cfb4 .cfa: $rsp 16 +
STACK CFI cfb8 .cfa: $rsp 24 +
STACK CFI cfba .cfa: $rsp 32 +
STACK CFI cfd2 .cfa: $rsp 8 +
STACK CFI INIT d730 23 .cfa: $rsp 8 + .ra: .cfa -8 + ^
STACK CFI d749 .cfa: $rsp 16 +
STACK CFI INIT d760 1a .cfa: $rsp 8 + .ra: .cfa -8 + ^
STACK CFI INIT d780 78 .cfa: $rsp 8 + .ra: .cfa -8 + ^
STACK CFI d782 $r12: .cfa -16 + ^ .cfa: $rsp 16 +
STACK CFI d783 $rbp: .cfa -24 + ^ .cfa: $rsp 24 +
STACK CFI d787 $rbx: .cfa -32 + ^ .cfa: $rsp 32 +
STACK CFI d7bf .cfa: $rsp 24 +
STACK CFI d7c0 .cfa: $rsp 16 +
STACK CFI d7c2 .cfa: $rsp 8 +
STACK CFI d7c8 .cfa: $rsp 32 +
STACK CFI d7d5 .cfa: $rsp 24 +
STACK CFI d7d6 .cfa: $rsp 16 +
STACK CFI d7d8 .cfa: $rsp 8 +
STACK CFI d7d9 .cfa: $rsp 32 +
STACK CFI INIT d800 2c .cfa: $rsp 8 + .ra: .cfa -8 + ^
STACK CFI d814 .cfa: $rsp 16 +
STACK CFI INIT d830 5d .cfa: $rsp 8 + .ra: .cfa -8 + ^
STACK CFI d832 $r12: .cfa -16 + ^ .cfa: $rsp 16 +
STACK CFI d836 $rbp: .cfa -24 + ^ .cfa: $rsp 24 +
STACK CFI d837 $rbx: .cfa -32 + ^ .cfa: $rsp 32 +
STACK CFI d87a .cfa: $rsp 24 +
STACK CFI d87b .cfa: $rsp 16 +
STACK CFI d87d .cfa: $rsp 8 +
STACK CFI d880 .cfa: $rsp 32 +
STACK CFI INIT d890 15 .cfa: $rsp 8 + .ra: .cfa -8 + ^
STACK CFI INIT d8b0 b6 .cfa: $rsp 8 + .ra: .cfa -8 + ^
STACK CFI d8b2 $r13: .cfa -16 + ^ .cfa: $rsp 16 +
STACK CFI d8b4 $r12: .cfa -24 + ^ .cfa: $rsp 24 +
STACK CFI d8b5 $rbp: .cfa -32 + ^ .cfa: $rsp 32 +
STACK CFI d8b6 $rbx: .cfa -40 + ^ .cfa: $rsp 40 +
STACK CFI d8ba .cfa: $rsp 48 +
STACK CFI d8ee .cfa: $rsp 40 +
STACK CFI d8ef .cfa: $rsp 32 +
STACK CFI d8f0 .cfa: $rsp 24 +
STACK CFI d8f2 .cfa: $rsp 16 +
STACK CFI d8f4 .cfa: $rsp 8 +
STACK CFI d8f8 .cfa: $rsp 48 +
STACK CFI INIT d970 ff .cfa: $rsp 8 + .ra: .cfa -8 + ^
STACK CFI d971 $rbp: .cfa -16 + ^ .cfa: $rsp 16 +
STACK CFI d972 $rbx: .cfa -24 + ^ .cfa: $rsp 24 +
STACK CFI d976 .cfa: $rsp 32 +
STACK CFI d9f9 .cfa: $rsp 24 +
STACK CFI d9fa .cfa: $rsp 16 +
STACK CFI d9fb .cfa: $rsp 8 +
STACK CFI da00 .cfa: $rsp 32 +
STACK CFI da0d .cfa: $rsp 24 +
STACK CFI da10 .cfa: $rsp 16 +
STACK CFI da11 .cfa: $rsp 8 +
STACK CFI da12 .cfa: $rsp 32 +
STACK CFI INIT da70 ca .cfa: $rsp 8 + .ra: .cfa -8 + ^
STACK CFI da7a $r15: .cfa -16 + ^ .cfa: $rsp 16 +
STACK CFI da7c $r14: .cfa -24 + ^ .cfa: $rsp 24 +
STACK CFI da7e $r13: .cfa -32 + ^ .cfa: $rsp 32 +
STACK CFI da80 $r12: .cfa -40 + ^ .cfa: $rsp 40 +
STACK CFI da84 $rbp: .cfa -48 + ^ .cfa: $rsp 48 +
STACK CFI da85 $rbx: .cfa -56 + ^ .cfa: $rsp 56 +
STACK CFI da91 .cfa: $rsp 80 +
STACK CFI db0a .cfa: $rsp 56 +
STACK CFI db0b $rbx: $rbx .cfa: $rsp 48 +
STACK CFI db0c $rbp: $rbp .cfa: $rsp 40 +
STACK CFI db0e $r12: $r12 .cfa: $rsp 32 +
STACK CFI db10 $r13: $r13 .cfa: $rsp 24 +
STACK CFI db12 $r14: $r14 .cfa: $rsp 16 +
STACK CFI db14 $r15: $r15 .cfa: $rsp 8 +
STACK CFI db1b $r12: .cfa -40 + ^ $r13: .cfa -32 + ^ $r14: .cfa -24 + ^ $r15: .cfa -16 + ^ $rbp: .cfa -48 + ^ $rbx: .cfa -56 + ^ .cfa: $rsp 80 +
STACK CFI INIT db40 c9 .cfa: $rsp 8 + .ra: .cfa -8 + ^
STACK CFI db4a $r15: .cfa -16 + ^ .cfa: $rsp 16 +
STACK CFI db4c $r14: .cfa -24 + ^ .cfa: $rsp 24 +
STACK CFI db4e $r13: .cfa -32 + ^ .cfa: $rsp 32 +
STACK CFI db50 $r12: .cfa -40 + ^ .cfa: $rsp 40 +
STACK CFI db54 $rbp: .cfa -48 + ^ .cfa: $rsp 48 +
STACK CFI db55 $rbx: .cfa -56 + ^ .cfa: $rsp 56 +
STACK CFI db61 .cfa: $rsp 80 +
STACK CFI dbd9 .cfa: $rsp 56 +
STACK CFI dbda $rbx: $rbx .cfa: $rsp 48 +
STACK CFI dbdb $rbp: $rbp .cfa: $rsp 40 +
STACK CFI dbdd $r12: $r12 .cfa: $rsp 32 +
STACK CFI dbdf $r13: $r13 .cfa: $rsp 24 +
STACK CFI dbe1 $r14: $r14 .cfa: $rsp 16 +
STACK CFI dbe3 $r15: $r15 .cfa: $rsp 8 +
STACK CFI dbea $r12: .cfa -40 + ^ $r13: .cfa -32 + ^ $r14: .cfa -24 + ^ $r15: .cfa -16 + ^ $rbp: .cfa -48 + ^ $rbx: .cfa -56 + ^ .cfa: $rsp 80 +
STACK CFI INIT dc10 41 .cfa: $rsp 8 + .ra: .cfa -8 + ^
STACK CFI dc11 $rbx: .cfa -16 + ^ .cfa: $rsp 16 +
STACK CFI dc31 .cfa: $rsp 8 +
STACK CFI dc32 .cfa: $rsp 16 +
STACK CFI INIT dc60 89 .cfa: $rsp 8 + .ra: .cfa -8 + ^
STACK CFI dc64 .cfa: $rsp 16 +
STACK CFI dc87 .cfa: $rsp 8 +
STACK CFI dc8c .cfa: $rsp 16 +
STACK CFI INIT dcf0 c1 .cfa: $rsp 8 + .ra: .cfa -8 + ^
STACK CFI dcf2 $r12: .cfa -16 + ^ .cfa: $rsp 16 +
STACK CFI dcf3 $rbp: .cfa -24 + ^ .cfa: $rsp 24 +
STACK CFI dcf4 $rbx: .cfa -32 + ^ .cfa: $rsp 32 +
STACK CFI dcf8 .cfa: $rsp 64 +
STACK CFI dd33 .cfa: $rsp 32 +
STACK CFI dd36 .cfa: $rsp 24 +
STACK CFI dd37 .cfa: $rsp 16 +
STACK CFI dd39 .cfa: $rsp 8 +
STACK CFI dd40 .cfa: $rsp 64 +
STACK CFI dd6e .cfa: $rsp 32 +
STACK CFI dd6f .cfa: $rsp 24 +
STACK CFI dd70 .cfa: $rsp 16 +
STACK CFI dd72 .cfa: $rsp 8 +
STACK CFI dd73 .cfa: $rsp 64 +
STACK CFI INIT dde0 215 .cfa: $rsp 8 + .ra: .cfa -8 + ^
STACK CFI dde2 $r15: .cfa -16 + ^ .cfa: $rsp 16 +
STACK CFI dde4 $r14: .cfa -24 + ^ .cfa: $rsp 24 +
STACK CFI dde6 $r13: .cfa -32 + ^ .cfa: $rsp 32 +
STACK CFI dde8 $r12: .cfa -40 + ^ .cfa: $rsp 40 +
STACK CFI dde9 $rbp: .cfa -48 + ^ .cfa: $rsp 48 +
STACK CFI ddea $rbx: .cfa -56 + ^ .cfa: $rsp 56 +
STACK CFI ddee .cfa: $rsp 128 +
STACK CFI debf .cfa: $rsp 56 +
STACK CFI dec2 .cfa: $rsp 48 +
STACK CFI dec3 .cfa: $rsp 40 +
STACK CFI dec5 .cfa: $rsp 32 +
STACK CFI dec7 .cfa: $rsp 24 +
STACK CFI dec9 .cfa: $rsp 16 +
STACK CFI decb .cfa: $rsp 8 +
STACK CFI ded0 .cfa: $rsp 128 +
STACK CFI INIT ddc0 5 .cfa: $rsp 8 + .ra: .cfa -8 + ^
STACK CFI INIT e000 20d .cfa: $rsp 8 + .ra: .cfa -8 + ^
STACK CFI e002 $r15: .cfa -16 + ^ .cfa: $rsp 16 +
STACK CFI e004 $r14: .cfa -24 + ^ .cfa: $rsp 24 +
STACK CFI e006 $r13: .cfa -32 + ^ .cfa: $rsp 32 +
STACK CFI e008 $r12: .cfa -40 + ^ .cfa: $rsp 40 +
STACK CFI e009 $rbp: .cfa -48 + ^ .cfa: $rsp 48 +
STACK CFI e00a $rbx: .cfa -56 + ^ .cfa: $rsp 56 +
STACK CFI e00e .cfa: $rsp 128 +
STACK CFI e0d6 .cfa: $rsp 56 +
STACK CFI e0d9 .cfa: $rsp 48 +
STACK CFI e0da .cfa: $rsp 40 +
STACK CFI e0dc .cfa: $rsp 32 +
STACK CFI e0de .cfa: $rsp 24 +
STACK CFI e0e0 .cfa: $rsp 16 +
STACK CFI e0e2 .cfa: $rsp 8 +
STACK CFI e0e8 .cfa: $rsp 128 +
STACK CFI INIT ddd0 5 .cfa: $rsp 8 + .ra: .cfa -8 + ^
STACK CFI INIT e210 91 .cfa: $rsp 8 + .ra: .cfa -8 + ^
STACK CFI e212 $r15: .cfa -16 + ^ .cfa: $rsp 16 +
STACK CFI e214 $r14: .cfa -24 + ^ .cfa: $rsp 24 +
STACK CFI e218 $r13: .cfa -32 + ^ .cfa: $rsp 32 +
STACK CFI e21a $r12: .cfa -40 + ^ .cfa: $rsp 40 +
STACK CFI e21d $rbp: .cfa -48 + ^ .cfa: $rsp 48 +
STACK CFI e21e $rbx: .cfa -56 + ^ .cfa: $rsp 56 +
STACK CFI e230 .cfa: $rsp 80 +
STACK CFI e27c .cfa: $rsp 56 +
STACK CFI e27d .cfa: $rsp 48 +
STACK CFI e27e .cfa: $rsp 40 +
STACK CFI e283 .cfa: $rsp 32 +
STACK CFI e285 .cfa: $rsp 24 +
STACK CFI e287 .cfa: $rsp 16 +
STACK CFI e289 .cfa: $rsp 8 +
STACK CFI e290 .cfa: $rsp 80 +
STACK CFI e294 .cfa: $rsp 56 +
STACK CFI e297 .cfa: $rsp 48 +
STACK CFI e298 .cfa: $rsp 40 +
STACK CFI e29a .cfa: $rsp 32 +
STACK CFI e29c .cfa: $rsp 24 +
STACK CFI e29e .cfa: $rsp 16 +
STACK CFI e2a0 .cfa: $rsp 8 +
STACK CFI INIT e2b0 56 .cfa: $rsp 8 + .ra: .cfa -8 + ^
STACK CFI e2b1 $rbx: .cfa -16 + ^ .cfa: $rsp 16 +
STACK CFI e2bd .cfa: $rsp 48 +
STACK CFI e304 .cfa: $rsp 16 +
STACK CFI e305 .cfa: $rsp 8 +
STACK CFI INIT e310 13b .cfa: $rsp 8 + .ra: .cfa -8 + ^
STACK CFI e312 $r14: .cfa -16 + ^ .cfa: $rsp 16 +
STACK CFI e314 $r13: .cfa -24 + ^ .cfa: $rsp 24 +
STACK CFI e316 $r12: .cfa -32 + ^ .cfa: $rsp 32 +
STACK CFI e317 $rbp: .cfa -40 + ^ .cfa: $rsp 40 +
STACK CFI e31b $rbx: .cfa -48 + ^ .cfa: $rsp 48 +
STACK CFI e324 .cfa: $rsp 80 +
STACK CFI e3fe .cfa: $rsp 48 +
STACK CFI e402 .cfa: $rsp 40 +
STACK CFI e403 .cfa: $rsp 32 +
STACK CFI e405 .cfa: $rsp 24 +
STACK CFI e407 .cfa: $rsp 16 +
STACK CFI e409 .cfa: $rsp 8 +
STACK CFI e410 .cfa: $rsp 80 +
STACK CFI INIT e5f0 2bd .cfa: $rsp 8 + .ra: .cfa -8 + ^
STACK CFI e5fb $r15: .cfa -16 + ^ .cfa: $rsp 16 +
STACK CFI e5fd $r14: .cfa -24 + ^ .cfa: $rsp 24 +
STACK CFI e602 $r13: .cfa -32 + ^ .cfa: $rsp 32 +
STACK CFI e604 $r12: .cfa -40 + ^ .cfa: $rsp 40 +
STACK CFI e605 $rbp: .cfa -48 + ^ .cfa: $rsp 48 +
STACK CFI e606 $rbx: .cfa -56 + ^ .cfa: $rsp 56 +
STACK CFI e610 .cfa: $rsp 80 +
STACK CFI e691 .cfa: $rsp 56 +
STACK CFI e692 $rbx: $rbx .cfa: $rsp 48 +
STACK CFI e693 $rbp: $rbp .cfa: $rsp 40 +
STACK CFI e695 $r12: $r12 .cfa: $rsp 32 +
STACK CFI e697 $r13: $r13 .cfa: $rsp 24 +
STACK CFI e699 $r14: $r14 .cfa: $rsp 16 +
STACK CFI e69b $r15: $r15 .cfa: $rsp 8 +
STACK CFI e6a0 $r12: .cfa -40 + ^ $r13: .cfa -32 + ^ $r14: .cfa -24 + ^ $r15: .cfa -16 + ^ $rbp: .cfa -48 + ^ $rbx: .cfa -56 + ^ .cfa: $rsp 80 +
STACK CFI e6f1 .cfa: $rsp 56 +
STACK CFI e6f2 $rbx: $rbx .cfa: $rsp 48 +
STACK CFI e6f3 $rbp: $rbp .cfa: $rsp 40 +
STACK CFI e6f5 $r12: $r12 .cfa: $rsp 32 +
STACK CFI e6f7 $r13: $r13 .cfa: $rsp 24 +
STACK CFI e6f9 $r14: $r14 .cfa: $rsp 16 +
STACK CFI e6fb $r15: $r15 .cfa: $rsp 8 +
STACK CFI e700 $r12: .cfa -40 + ^ $r13: .cfa -32 + ^ $r14: .cfa -24 + ^ $r15: .cfa -16 + ^ $rbp: .cfa -48 + ^ $rbx: .cfa -56 + ^ .cfa: $rsp 80 +
STACK CFI e81e .cfa: $rsp 56 +
STACK CFI e81f $rbx: $rbx .cfa: $rsp 48 +
STACK CFI e820 $rbp: $rbp .cfa: $rsp 40 +
STACK CFI e822 $r12: $r12 .cfa: $rsp 32 +
STACK CFI e824 $r13: $r13 .cfa: $rsp 24 +
STACK CFI e826 $r14: $r14 .cfa: $rsp 16 +
STACK CFI e828 $r15: $r15 .cfa: $rsp 8 +
STACK CFI e830 $r12: .cfa -40 + ^ $r13: .cfa -32 + ^ $r14: .cfa -24 + ^ $r15: .cfa -16 + ^ $rbp: .cfa -48 + ^ $rbx: .cfa -56 + ^ .cfa: $rsp 80 +
STACK CFI INIT e8b0 14d .cfa: $rsp 8 + .ra: .cfa -8 + ^
STACK CFI e8fa $r15: .cfa -16 + ^ .cfa: $rsp 16 +
STACK CFI e8fc $r14: .cfa -24 + ^ .cfa: $rsp 24 +
STACK CFI e908 $r13: .cfa -32 + ^ .cfa: $rsp 32 +
STACK CFI e90a $r12: .cfa -40 + ^ .cfa: $rsp 40 +
STACK CFI e90b $rbp: .cfa -48 + ^ .cfa: $rsp 48 +
STACK CFI e90c $rbx: .cfa -56 + ^ .cfa: $rsp 56 +
STACK CFI e916 .cfa: $rsp 64 +
STACK CFI e9c9 .cfa: $rsp 56 +
STACK CFI e9ca $rbx: $rbx .cfa: $rsp 48 +
STACK CFI e9cb $rbp: $rbp .cfa: $rsp 40 +
STACK CFI e9cd $r12: $r12 .cfa: $rsp 32 +
STACK CFI e9cf $r13: $r13 .cfa: $rsp 24 +
STACK CFI e9d1 $r14: $r14 .cfa: $rsp 16 +
STACK CFI e9d3 $r15: $r15 .cfa: $rsp 8 +
STACK CFI e9d8 $r12: .cfa -40 + ^ $r13: .cfa -32 + ^ $r14: .cfa -24 + ^ $r15: .cfa -16 + ^ $rbp: .cfa -48 + ^ $rbx: .cfa -56 + ^ .cfa: $rsp 64 +
STACK CFI INIT e450 cb .cfa: $rsp 8 + .ra: .cfa -8 + ^
STACK CFI e452 $r12: .cfa -16 + ^ .cfa: $rsp 16 +
STACK CFI e453 $rbp: .cfa -24 + ^ .cfa: $rsp 24 +
STACK CFI e457 $rbx: .cfa -32 + ^ .cfa: $rsp 32 +
STACK CFI e45e .cfa: $rsp 48 +
STACK CFI e4ea .cfa: $rsp 32 +
STACK CFI e4eb .cfa: $rsp 24 +
STACK CFI e4ec .cfa: $rsp 16 +
STACK CFI e4ee .cfa: $rsp 8 +
STACK CFI e4f0 .cfa: $rsp 48 +
STACK CFI e4ff .cfa: $rsp 32 +
STACK CFI e500 .cfa: $rsp 24 +
STACK CFI e501 .cfa: $rsp 16 +
STACK CFI e503 .cfa: $rsp 8 +
STACK CFI e508 .cfa: $rsp 48 +
STACK CFI INIT e520 cb .cfa: $rsp 8 + .ra: .cfa -8 + ^
STACK CFI e522 $r12: .cfa -16 + ^ .cfa: $rsp 16 +
STACK CFI e523 $rbp: .cfa -24 + ^ .cfa: $rsp 24 +
STACK CFI e527 $rbx: .cfa -32 + ^ .cfa: $rsp 32 +
STACK CFI e52e .cfa: $rsp 48 +
STACK CFI e5b8 .cfa: $rsp 32 +
STACK CFI e5b9 .cfa: $rsp 24 +
STACK CFI e5ba .cfa: $rsp 16 +
STACK CFI e5bc .cfa: $rsp 8 +
STACK CFI e5c0 .cfa: $rsp 48 +
STACK CFI e5cf .cfa: $rsp 32 +
STACK CFI e5d0 .cfa: $rsp 24 +
STACK CFI e5d1 .cfa: $rsp 16 +
STACK CFI e5d3 .cfa: $rsp 8 +
STACK CFI e5d8 .cfa: $rsp 48 +
STACK CFI INIT ea00 1f .cfa: $rsp 8 + .ra: .cfa -8 + ^
STACK CFI ea0b .cfa: $rsp 16 +
STACK CFI ea1e .cfa: $rsp 8 +
STACK CFI INIT ea20 5 .cfa: $rsp 8 + .ra: .cfa -8 + ^
STACK CFI INIT ea30 452 .cfa: $rsp 8 + .ra: .cfa -8 + ^
STACK CFI ea32 $r15: .cfa -16 + ^ .cfa: $rsp 16 +
STACK CFI ea34 $r14: .cfa -24 + ^ .cfa: $rsp 24 +
STACK CFI ea36 $r13: .cfa -32 + ^ .cfa: $rsp 32 +
STACK CFI ea38 $r12: .cfa -40 + ^ .cfa: $rsp 40 +
STACK CFI ea39 $rbp: .cfa -48 + ^ .cfa: $rsp 48 +
STACK CFI ea3a $rbx: .cfa -56 + ^ .cfa: $rsp 56 +
STACK CFI ea3e .cfa: $rsp 96 +
STACK CFI ea87 .cfa: $rsp 56 +
STACK CFI ea8a .cfa: $rsp 48 +
STACK CFI ea8b .cfa: $rsp 40 +
STACK CFI ea8d .cfa: $rsp 32 +
STACK CFI ea8f .cfa: $rsp 24 +
STACK CFI ea91 .cfa: $rsp 16 +
STACK CFI ea93 .cfa: $rsp 8 +
STACK CFI ea98 .cfa: $rsp 96 +
STACK CFI ebbe .cfa: $rsp 56 +
STACK CFI ebbf .cfa: $rsp 48 +
STACK CFI ebc0 .cfa: $rsp 40 +
STACK CFI ebc2 .cfa: $rsp 32 +
STACK CFI ebc4 .cfa: $rsp 24 +
STACK CFI ebc6 .cfa: $rsp 16 +
STACK CFI ebc8 .cfa: $rsp 8 +
STACK CFI ebd0 .cfa: $rsp 96 +
STACK CFI INIT ee90 287 .cfa: $rsp 8 + .ra: .cfa -8 + ^
STACK CFI ee95 $r14: .cfa -16 + ^ .cfa: $rsp 16 +
STACK CFI ee97 $r13: .cfa -24 + ^ .cfa: $rsp 24 +
STACK CFI ee99 $r12: .cfa -32 + ^ .cfa: $rsp 32 +
STACK CFI ee9a $rbp: .cfa -40 + ^ .cfa: $rsp 40 +
STACK CFI ee9b $rbx: .cfa -48 + ^ .cfa: $rsp 48 +
STACK CFI eeda .cfa: $rsp 40 +
STACK CFI eedd .cfa: $rsp 32 +
STACK CFI eedf .cfa: $rsp 24 +
STACK CFI eee1 .cfa: $rsp 16 +
STACK CFI eee3 .cfa: $rsp 8 +
STACK CFI eee8 .cfa: $rsp 48 +
STACK CFI ef89 .cfa: $rsp 40 +
STACK CFI ef8a .cfa: $rsp 32 +
STACK CFI ef8c .cfa: $rsp 24 +
STACK CFI ef8e .cfa: $rsp 16 +
STACK CFI ef90 .cfa: $rsp 8 +
STACK CFI ef98 .cfa: $rsp 48 +
STACK CFI INIT f120 fe .cfa: $rsp 8 + .ra: .cfa -8 + ^
STACK CFI f122 $r15: .cfa -16 + ^ .cfa: $rsp 16 +
STACK CFI f124 $r14: .cfa -24 + ^ .cfa: $rsp 24 +
STACK CFI f129 $r13: .cfa -32 + ^ .cfa: $rsp 32 +
STACK CFI f12b $r12: .cfa -40 + ^ .cfa: $rsp 40 +
STACK CFI f12c $rbp: .cfa -48 + ^ .cfa: $rsp 48 +
STACK CFI f12d $rbx: .cfa -56 + ^ .cfa: $rsp 56 +
STACK CFI f131 .cfa: $rsp 80 +
STACK CFI f1c9 .cfa: $rsp 56 +
STACK CFI f1cd .cfa: $rsp 48 +
STACK CFI f1ce .cfa: $rsp 40 +
STACK CFI f1d0 .cfa: $rsp 32 +
STACK CFI f1d2 .cfa: $rsp 24 +
STACK CFI f1d4 .cfa: $rsp 16 +
STACK CFI f1d6 .cfa: $rsp 8 +
STACK CFI f1d7 .cfa: $rsp 80 +
STACK CFI INIT f220 13 .cfa: $rsp 8 + .ra: .cfa -8 + ^
STACK CFI f224 .cfa: $rsp 32 +
STACK CFI f232 .cfa: $rsp 8 +
STACK CFI INIT f240 9d .cfa: $rsp 8 + .ra: .cfa -8 + ^
STACK CFI f241 $rbx: .cfa -16 + ^ .cfa: $rsp 16 +
STACK CFI f248 .cfa: $rsp 32 +
STACK CFI f2b4 .cfa: $rsp 16 +
STACK CFI f2b8 .cfa: $rsp 8 +
STACK CFI f2c0 .cfa: $rsp 32 +
STACK CFI INIT f2e0 1c .cfa: $rsp 8 + .ra: .cfa -8 + ^
STACK CFI f2e1 $rbx: .cfa -16 + ^ .cfa: $rsp 16 +
STACK CFI f2fb .cfa: $rsp 8 +
STACK CFI INIT f300 43d .cfa: $rsp 8 + .ra: .cfa -8 + ^
STACK CFI f302 $r15: .cfa -16 + ^ .cfa: $rsp 16 +
STACK CFI f304 $r14: .cfa -24 + ^ .cfa: $rsp 24 +
STACK CFI f309 $r13: .cfa -32 + ^ .cfa: $rsp 32 +
STACK CFI f30b $r12: .cfa -40 + ^ .cfa: $rsp 40 +
STACK CFI f30c $rbp: .cfa -48 + ^ .cfa: $rsp 48 +
STACK CFI f30d $rbx: .cfa -56 + ^ .cfa: $rsp 56 +
STACK CFI f319 .cfa: $rsp 144 +
STACK CFI f3b5 .cfa: $rsp 56 +
STACK CFI f3b6 .cfa: $rsp 48 +
STACK CFI f3b7 .cfa: $rsp 40 +
STACK CFI f3b9 .cfa: $rsp 32 +
STACK CFI f3bb .cfa: $rsp 24 +
STACK CFI f3bd .cfa: $rsp 16 +
STACK CFI f3bf .cfa: $rsp 8 +
STACK CFI f3c0 .cfa: $rsp 144 +
STACK CFI f449 .cfa: $rsp 152 +
STACK CFI f44f .cfa: $rsp 160 +
STACK CFI f466 .cfa: $rsp 152 +
STACK CFI f46c .cfa: $rsp 144 +
STACK CFI f4dd .cfa: $rsp 56 +
STACK CFI f4de .cfa: $rsp 48 +
STACK CFI f4df .cfa: $rsp 40 +
STACK CFI f4e1 .cfa: $rsp 32 +
STACK CFI f4e3 .cfa: $rsp 24 +
STACK CFI f4e5 .cfa: $rsp 16 +
STACK CFI f4e7 .cfa: $rsp 8 +
STACK CFI f4e8 .cfa: $rsp 144 +
STACK CFI INIT f740 57 .cfa: $rsp 8 + .ra: .cfa -8 + ^
STACK CFI f741 $rbp: .cfa -16 + ^ .cfa: $rsp 16 +
STACK CFI f742 $rbx: .cfa -24 + ^ .cfa: $rsp 24 +
STACK CFI f74b .cfa: $rsp 48 +
STACK CFI f778 .cfa: $rsp 24 +
STACK CFI f77b .cfa: $rsp 16 +
STACK CFI f77c .cfa: $rsp 8 +
STACK CFI f780 .cfa: $rsp 48 +
STACK CFI INIT f890 16 .cfa: $rsp 8 + .ra: .cfa -8 + ^
STACK CFI f894 .cfa: $rsp 16 +
STACK CFI f89f .cfa: $rsp 8 +
STACK CFI INIT f7a0 73 .cfa: $rsp 8 + .ra: .cfa -8 + ^
STACK CFI f7a1 $rbx: .cfa -16 + ^ .cfa: $rsp 16 +
STACK CFI f812 .cfa: $rsp 8 +
STACK CFI INIT f820 66 .cfa: $rsp 8 + .ra: .cfa -8 + ^
STACK CFI f824 $rbx: .cfa -16 + ^ .cfa: $rsp 16 +
STACK CFI f841 .cfa: $rsp 24 +
STACK CFI f845 .cfa: $rsp 32 +
STACK CFI f852 .cfa: $rsp 24 +
STACK CFI f858 .cfa: $rsp 16 +
STACK CFI f866 .cfa: $rsp 8 +
STACK CFI f867 .cfa: $rsp 16 +
STACK CFI INIT f8b0 1e .cfa: $rsp 8 + .ra: .cfa -8 + ^
STACK CFI INIT f8d0 46 .cfa: $rsp 8 + .ra: .cfa -8 + ^
STACK CFI INIT f920 56 .cfa: $rsp 8 + .ra: .cfa -8 + ^
STACK CFI INIT f980 4c .cfa: $rsp 8 + .ra: .cfa -8 + ^
STACK CFI INIT f9d0 39 .cfa: $rsp 8 + .ra: .cfa -8 + ^
STACK CFI INIT fa10 3c .cfa: $rsp 8 + .ra: .cfa -8 + ^
STACK CFI INIT fa50 34 .cfa: $rsp 8 + .ra: .cfa -8 + ^
STACK CFI INIT fa90 26 .cfa: $rsp 8 + .ra: .cfa -8 + ^
STACK CFI INIT fac0 34 .cfa: $rsp 8 + .ra: .cfa -8 + ^
STACK CFI INIT fb00 7c .cfa: $rsp 8 + .ra: .cfa -8 + ^
STACK CFI INIT fb80 3a .cfa: $rsp 8 + .ra: .cfa -8 + ^
STACK CFI INIT fbc0 1f .cfa: $rsp 8 + .ra: .cfa -8 + ^
STACK CFI INIT fbe0 38 .cfa: $rsp 8 + .ra: .cfa -8 + ^
STACK CFI INIT fc20 3b .cfa: $rsp 8 + .ra: .cfa -8 + ^
STACK CFI fc26 $rbx: .cfa -16 + ^ .cfa: $rsp 16 +
STACK CFI fc43 $rbx: $rbx .cfa: $rsp 8 +
STACK CFI fc48 $rbx: .cfa -16 + ^ .cfa: $rsp 16 +
STACK CFI fc57 $rbx: $rbx .cfa: $rsp 8 +
STACK CFI INIT fc60 3e .cfa: $rsp 8 + .ra: .cfa -8 + ^
STACK CFI INIT fca0 10 .cfa: $rsp 8 + .ra: .cfa -8 + ^
STACK CFI INIT fcb0 4b .cfa: $rsp 8 + .ra: .cfa -8 + ^
STACK CFI fcb1 $rbp: .cfa -16 + ^ .cfa: $rsp 16 +
STACK CFI fcb2 $rbx: .cfa -24 + ^ .cfa: $rsp 24 +
STACK CFI fcb9 .cfa: $rsp 32 +
STACK CFI fcec .cfa: $rsp 24 +
STACK CFI fced .cfa: $rsp 16 +
STACK CFI fcee .cfa: $rsp 8 +
STACK CFI fcf0 .cfa: $rsp 32 +
STACK CFI INIT fd00 5 .cfa: $rsp 8 + .ra: .cfa -8 + ^
STACK CFI INIT fd10 17a .cfa: $rsp 8 + .ra: .cfa -8 + ^
STACK CFI fd12 $r15: .cfa -16 + ^ .cfa: $rsp 16 +
STACK CFI fd14 $r14: .cfa -24 + ^ .cfa: $rsp 24 +
STACK CFI fd16 $r13: .cfa -32 + ^ .cfa: $rsp 32 +
STACK CFI fd18 $r12: .cfa -40 + ^ .cfa: $rsp 40 +
STACK CFI fd1c $rbp: .cfa -48 + ^ .cfa: $rsp 48 +
STACK CFI fd1d $rbx: .cfa -56 + ^ .cfa: $rsp 56 +
STACK CFI fd2c .cfa: $rsp 208 +
STACK CFI fdec .cfa: $rsp 56 +
STACK CFI fdef .cfa: $rsp 48 +
STACK CFI fdf0 .cfa: $rsp 40 +
STACK CFI fdf2 .cfa: $rsp 32 +
STACK CFI fdf4 .cfa: $rsp 24 +
STACK CFI fdf6 .cfa: $rsp 16 +
STACK CFI fdf8 .cfa: $rsp 8 +
STACK CFI fe00 .cfa: $rsp 208 +
STACK CFI INIT fe90 14 .cfa: $rsp 8 + .ra: .cfa -8 + ^
STACK CFI INIT feb0 40 .cfa: $rsp 8 + .ra: .cfa -8 + ^
STACK CFI feb6 $rbx: .cfa -16 + ^ .cfa: $rsp 16 +
STACK CFI fed1 .cfa: $rsp 8 +
STACK CFI fed8 .cfa: $rsp 16 +
STACK CFI feef .cfa: $rsp 8 +
STACK CFI INIT fef0 2 .cfa: $rsp 8 + .ra: .cfa -8 + ^
STACK CFI INIT ff00 1de .cfa: $rsp 8 + .ra: .cfa -8 + ^
STACK CFI ff02 $r15: .cfa -16 + ^ .cfa: $rsp 16 +
STACK CFI ff04 $r14: .cfa -24 + ^ .cfa: $rsp 24 +
STACK CFI ff0b $r13: .cfa -32 + ^ .cfa: $rsp 32 +
STACK CFI ff0d $r12: .cfa -40 + ^ .cfa: $rsp 40 +
STACK CFI ff10 $rbp: .cfa -48 + ^ .cfa: $rsp 48 +
STACK CFI ff11 $rbx: .cfa -56 + ^ .cfa: $rsp 56 +
STACK CFI ff1b .cfa: $rsp 208 +
STACK CFI 1007c .cfa: $rsp 56 +
STACK CFI 1007d .cfa: $rsp 48 +
STACK CFI 1007e .cfa: $rsp 40 +
STACK CFI 10080 .cfa: $rsp 32 +
STACK CFI 10082 .cfa: $rsp 24 +
STACK CFI 10084 .cfa: $rsp 16 +
STACK CFI 10086 .cfa: $rsp 8 +
STACK CFI 10090 .cfa: $rsp 208 +
STACK CFI INIT 100e0 5 .cfa: $rsp 8 + .ra: .cfa -8 + ^
STACK CFI INIT 100f0 23 .cfa: $rsp 8 + .ra: .cfa -8 + ^
STACK CFI 100f5 $rbx: .cfa -16 + ^ .cfa: $rsp 16 +
STACK CFI 1010f $rbx: $rbx .cfa: $rsp 8 +
STACK CFI INIT 10120 8 .cfa: $rsp 8 + .ra: .cfa -8 + ^
STACK CFI INIT 10130 2fc .cfa: $rsp 8 + .ra: .cfa -8 + ^
STACK CFI INIT 10430 44 .cfa: $rsp 8 + .ra: .cfa -8 + ^
STACK CFI 1045c .cfa: $rsp 16 +
STACK CFI INIT 10480 47 .cfa: $rsp 8 + .ra: .cfa -8 + ^
STACK CFI 104af .cfa: $rsp 16 +
STACK CFI INIT 104d0 8 .cfa: $rsp 8 + .ra: .cfa -8 + ^
STACK CFI INIT 104e0 8 .cfa: $rsp 8 + .ra: .cfa -8 + ^
STACK CFI INIT 104f0 25c .cfa: $rsp 8 + .ra: .cfa -8 + ^
STACK CFI INIT 10750 c7 .cfa: $rsp 8 + .ra: .cfa -8 + ^
STACK CFI INIT 10820 fd .cfa: $rsp 8 + .ra: .cfa -8 + ^
STACK CFI 10821 $rbp: .cfa -16 + ^ .cfa: $rsp 16 +
STACK CFI 10822 $rbx: .cfa -24 + ^ .cfa: $rsp 24 +
STACK CFI 108a9 .cfa: $rsp 16 +
STACK CFI 108aa .cfa: $rsp 8 +
STACK CFI 108b0 .cfa: $rsp 24 +
STACK CFI 1090a .cfa: $rsp 16 +
STACK CFI 1090b .cfa: $rsp 8 +
STACK CFI 1090c .cfa: $rsp 24 +
STACK CFI INIT 10920 fe .cfa: $rsp 8 + .ra: .cfa -8 + ^
STACK CFI 10922 $r15: .cfa -16 + ^ .cfa: $rsp 16 +
STACK CFI 10924 $r14: .cfa -24 + ^ .cfa: $rsp 24 +
STACK CFI 10926 $r13: .cfa -32 + ^ .cfa: $rsp 32 +
STACK CFI 10928 $r12: .cfa -40 + ^ .cfa: $rsp 40 +
STACK CFI 10929 $rbp: .cfa -48 + ^ .cfa: $rsp 48 +
STACK CFI 1092a $rbx: .cfa -56 + ^ .cfa: $rsp 56 +
STACK CFI 109ff .cfa: $rsp 48 +
STACK CFI 10a00 .cfa: $rsp 40 +
STACK CFI 10a02 .cfa: $rsp 32 +
STACK CFI 10a04 .cfa: $rsp 24 +
STACK CFI 10a06 .cfa: $rsp 16 +
STACK CFI 10a08 .cfa: $rsp 8 +
STACK CFI 10a10 .cfa: $rsp 56 +
STACK CFI INIT 10a20 1ff .cfa: $rsp 8 + .ra: .cfa -8 + ^
STACK CFI 10a22 $r13: .cfa -16 + ^ .cfa: $rsp 16 +
STACK CFI 10a24 $r12: .cfa -24 + ^ .cfa: $rsp 24 +
STACK CFI 10a25 $rbp: .cfa -32 + ^ .cfa: $rsp 32 +
STACK CFI 10a26 $rbx: .cfa -40 + ^ .cfa: $rsp 40 +
STACK CFI 10b42 .cfa: $rsp 32 +
STACK CFI 10b43 .cfa: $rsp 24 +
STACK CFI 10b48 .cfa: $rsp 16 +
STACK CFI 10b4a .cfa: $rsp 8 +
STACK CFI 10b50 .cfa: $rsp 40 +
STACK CFI 10b65 .cfa: $rsp 32 +
STACK CFI 10b66 .cfa: $rsp 24 +
STACK CFI 10b68 .cfa: $rsp 16 +
STACK CFI 10b6a .cfa: $rsp 8 +
STACK CFI 10b70 .cfa: $rsp 40 +
STACK CFI 10b95 .cfa: $rsp 32 +
STACK CFI 10b96 .cfa: $rsp 24 +
STACK CFI 10b98 .cfa: $rsp 16 +
STACK CFI 10b9a .cfa: $rsp 8 +
STACK CFI 10ba0 .cfa: $rsp 40 +
STACK CFI 10bc9 .cfa: $rsp 32 +
STACK CFI 10bca .cfa: $rsp 24 +
STACK CFI 10bcc .cfa: $rsp 16 +
STACK CFI 10bce .cfa: $rsp 8 +
STACK CFI 10bcf .cfa: $rsp 40 +
STACK CFI INIT 10c20 2b .cfa: $rsp 8 + .ra: .cfa -8 + ^
STACK CFI INIT 10c50 26f .cfa: $rsp 8 + .ra: .cfa -8 + ^
STACK CFI 10c52 $r15: .cfa -16 + ^ .cfa: $rsp 16 +
STACK CFI 10c54 $r14: .cfa -24 + ^ .cfa: $rsp 24 +
STACK CFI 10c56 $r13: .cfa -32 + ^ .cfa: $rsp 32 +
STACK CFI 10c58 $r12: .cfa -40 + ^ .cfa: $rsp 40 +
STACK CFI 10c59 $rbp: .cfa -48 + ^ .cfa: $rsp 48 +
STACK CFI 10c5a $rbx: .cfa -56 + ^ .cfa: $rsp 56 +
STACK CFI 10c5e .cfa: $rsp 80 +
STACK CFI 10daf .cfa: $rsp 56 +
STACK CFI 10db0 .cfa: $rsp 48 +
STACK CFI 10db1 .cfa: $rsp 40 +
STACK CFI 10db3 .cfa: $rsp 32 +
STACK CFI 10db5 .cfa: $rsp 24 +
STACK CFI 10db7 .cfa: $rsp 16 +
STACK CFI 10db9 .cfa: $rsp 8 +
STACK CFI 10dc0 .cfa: $rsp 80 +
STACK CFI INIT 10ec0 19a .cfa: $rsp 8 + .ra: .cfa -8 + ^
STACK CFI 10ec2 $r13: .cfa -16 + ^ .cfa: $rsp 16 +
STACK CFI 10ec4 $r12: .cfa -24 + ^ .cfa: $rsp 24 +
STACK CFI 10ec7 $rbp: .cfa -32 + ^ .cfa: $rsp 32 +
STACK CFI 10ec8 $rbx: .cfa -40 + ^ .cfa: $rsp 40 +
STACK CFI 10fad .cfa: $rsp 32 +
STACK CFI 10fae .cfa: $rsp 24 +
STACK CFI 10fb0 .cfa: $rsp 16 +
STACK CFI 10fb2 .cfa: $rsp 8 +
STACK CFI 10fb8 .cfa: $rsp 40 +
STACK CFI 1103c .cfa: $rsp 32 +
STACK CFI 1103d .cfa: $rsp 24 +
STACK CFI 1103f .cfa: $rsp 16 +
STACK CFI 11041 .cfa: $rsp 8 +
STACK CFI 11042 .cfa: $rsp 40 +
STACK CFI INIT 11060 287 .cfa: $rsp 8 + .ra: .cfa -8 + ^
STACK CFI 11062 $r15: .cfa -16 + ^ .cfa: $rsp 16 +
STACK CFI 11064 $r14: .cfa -24 + ^ .cfa: $rsp 24 +
STACK CFI 11066 $r13: .cfa -32 + ^ .cfa: $rsp 32 +
STACK CFI 11068 $r12: .cfa -40 + ^ .cfa: $rsp 40 +
STACK CFI 11069 $rbp: .cfa -48 + ^ .cfa: $rsp 48 +
STACK CFI 1106a $rbx: .cfa -56 + ^ .cfa: $rsp 56 +
STACK CFI 1106e .cfa: $rsp 88 +
STACK CFI 111f5 .cfa: $rsp 56 +
STACK CFI 111f6 .cfa: $rsp 48 +
STACK CFI 111f7 .cfa: $rsp 40 +
STACK CFI 111f9 .cfa: $rsp 32 +
STACK CFI 111fb .cfa: $rsp 24 +
STACK CFI 111fd .cfa: $rsp 16 +
STACK CFI 111ff .cfa: $rsp 8 +
STACK CFI 11200 .cfa: $rsp 88 +
STACK CFI INIT 112f0 65 .cfa: $rsp 8 + .ra: .cfa -8 + ^
STACK CFI 112f2 $r15: .cfa -16 + ^ .cfa: $rsp 16 +
STACK CFI 112f4 $r14: .cfa -24 + ^ .cfa: $rsp 24 +
STACK CFI 112f9 $r13: .cfa -32 + ^ .cfa: $rsp 32 +
STACK CFI 112fb $r12: .cfa -40 + ^ .cfa: $rsp 40 +
STACK CFI 11303 $rbp: .cfa -48 + ^ .cfa: $rsp 48 +
STACK CFI 1130b $rbx: .cfa -56 + ^ .cfa: $rsp 56 +
STACK CFI 11318 .cfa: $rsp 64 +
STACK CFI 1134a .cfa: $rsp 56 +
STACK CFI 1134b .cfa: $rsp 48 +
STACK CFI 1134c .cfa: $rsp 40 +
STACK CFI 1134e .cfa: $rsp 32 +
STACK CFI 11350 .cfa: $rsp 24 +
STACK CFI 11352 .cfa: $rsp 16 +
STACK CFI 11354 .cfa: $rsp 8 +
STACK CFI INIT 11360 2 .cfa: $rsp 8 + .ra: .cfa -8 + ^
